(dp1
I1
(lp2
I28
aI11
aI22
aI32
aI75
aI72
aI59
aI82
aI79
aI42
aI27
aI91
aI53
aI40
aI54
aI49
aI57
aI86
aI18
aI100
aI74
aI39
aI19
aI90
aI61
aI31
aI6
aI60
aI23
aI80
aI97
aI98
aI95
aI38
aI33
aI21
aI73
aI51
aI45
aI84
aI99
aI96
aI65
aI92
aI29
aI26
aI93
aI25
aI66
aI34
asI2
(lp3
I46
aI41
aI54
aI47
aI79
aI64
aI56
aI42
aI15
aI69
aI61
aI18
aI81
aI23
aI29
aI45
aI27
aI24
aI55
aI73
aI97
aI31
aI87
aI72
aI25
aI17
aI32
aI8
aI77
aI53
aI88
aI78
aI57
aI68
aI16
aI76
aI35
aI84
aI10
aI60
aI37
aI49
aI100
aI52
aI36
aI91
aI63
aI44
aI74
aI39
asI3
(lp4
I55
aI20
aI79
aI92
aI14
aI87
aI46
aI37
aI56
aI91
aI5
aI35
aI72
aI88
aI81
aI34
aI57
aI19
aI12
aI99
aI84
aI59
aI93
aI71
aI38
aI65
aI17
aI64
aI86
aI29
aI30
aI47
aI45
aI1
aI70
aI40
aI31
aI11
aI67
aI32
aI52
aI63
aI49
aI28
aI95
aI96
aI27
aI25
aI73
aI80
asI4
(lp5
I34
aI86
aI9
aI95
aI24
aI71
aI50
aI94
aI56
aI60
aI18
aI32
aI83
aI82
aI13
aI52
aI55
aI85
aI98
aI12
aI79
aI90
aI42
aI6
aI21
aI17
aI29
aI33
aI19
aI41
aI46
aI76
aI88
aI67
aI68
aI10
aI77
aI51
aI69
aI74
aI65
aI22
aI7
aI36
aI73
aI35
aI11
aI49
aI80
aI44
asI5
(lp6
I27
aI1
aI31
aI17
aI92
aI65
aI68
aI55
aI28
aI22
aI69
aI13
aI25
aI52
aI73
aI44
aI29
aI61
aI26
aI90
aI95
aI21
aI11
aI18
aI49
aI30
aI57
aI62
aI87
aI32
aI56
aI82
aI74
aI64
aI51
aI46
aI71
aI33
aI60
aI53
aI37
aI89
aI6
aI16
aI84
aI63
aI85
aI86
aI24
aI72
asI6
(lp7
I74
aI58
aI62
aI40
aI93
aI75
aI29
aI51
aI20
aI100
aI1
aI80
aI78
aI36
aI98
aI5
aI14
aI66
aI76
aI96
aI38
aI49
aI17
aI22
aI30
aI71
aI7
aI12
aI23
aI9
aI91
aI32
aI46
aI47
aI52
aI42
aI73
aI48
aI2
aI81
aI27
aI67
aI41
aI54
aI33
aI94
aI15
aI28
aI72
aI65
asI7
(lp8
I12
aI38
aI75
aI72
aI13
aI28
aI76
aI20
aI82
aI18
aI8
aI6
aI100
aI1
aI67
aI70
aI73
aI68
aI23
aI44
aI42
aI98
aI81
aI95
aI46
aI47
aI64
aI19
aI61
aI34
aI58
aI93
aI24
aI91
aI51
aI37
aI57
aI50
aI96
aI41
aI14
aI11
aI35
aI88
aI2
aI62
aI90
aI48
aI97
aI21
asI8
(lp9
I20
aI7
aI36
aI33
aI97
aI51
aI65
aI52
aI90
aI81
aI26
aI21
aI47
aI39
aI11
aI30
aI29
aI89
aI66
aI88
aI77
aI35
aI93
aI17
aI16
aI54
aI100
aI19
aI68
aI91
aI31
aI53
aI48
aI95
aI64
aI71
aI94
aI99
aI5
aI13
aI18
aI10
aI58
aI40
aI59
aI83
aI28
aI1
aI75
aI98
asI9
(lp10
I84
aI37
aI75
aI36
aI46
aI45
aI53
aI48
aI7
aI83
aI13
aI40
aI95
aI42
aI90
aI41
aI67
aI61
aI93
aI16
aI33
aI32
aI79
aI98
aI63
aI35
aI58
aI21
aI85
aI57
aI52
aI10
aI64
aI18
aI62
aI77
aI3
aI89
aI26
aI87
aI5
aI59
aI94
aI47
aI68
aI25
aI92
aI74
aI24
aI86
asI10
(lp11
I25
aI5
aI99
aI42
aI24
aI58
aI15
aI49
aI74
aI45
aI59
aI34
aI62
aI54
aI29
aI13
aI27
aI31
aI66
aI22
aI8
aI78
aI93
aI67
aI92
aI33
aI26
aI35
aI28
aI79
aI2
aI80
aI68
aI38
aI51
aI65
aI4
aI30
aI43
aI72
aI98
aI37
aI76
aI90
aI84
aI94
aI32
aI16
aI83
aI97
asI11
(lp12
I45
aI14
aI27
aI35
aI91
aI54
aI13
aI6
aI15
aI17
aI98
aI69
aI20
aI90
aI38
aI46
aI60
aI12
aI43
aI51
aI56
aI42
aI83
aI24
aI28
aI55
aI41
aI47
aI99
aI72
aI5
aI95
aI33
aI81
aI96
aI62
aI67
aI19
aI1
aI48
aI66
aI65
aI78
aI77
aI52
aI64
aI50
aI89
aI26
aI7
asI12
(lp13
I53
aI15
aI55
aI40
aI54
aI27
aI46
aI87
aI80
aI7
aI11
aI35
aI29
aI34
aI88
aI44
aI79
aI57
aI13
aI76
aI61
aI69
aI2
aI51
aI59
aI100
aI94
aI84
aI33
aI98
aI65
aI4
aI91
aI67
aI90
aI30
aI89
aI22
aI72
aI99
aI86
aI78
aI38
aI83
aI17
aI20
aI8
aI85
aI95
aI5
asI13
(lp14
I100
aI59
aI92
aI8
aI80
aI73
aI2
aI63
aI7
aI58
aI41
aI19
aI68
aI54
aI74
aI79
aI21
aI57
aI48
aI95
aI76
aI39
aI69
aI5
aI6
aI40
aI78
aI96
aI86
aI18
aI12
aI60
aI35
aI99
aI22
aI97
aI26
aI36
aI10
aI64
aI61
aI20
aI47
aI67
aI27
aI44
aI77
aI84
aI49
aI55
asI14
(lp15
I82
aI17
aI49
aI48
aI80
aI60
aI70
aI63
aI13
aI77
aI94
aI65
aI87
aI73
aI88
aI42
aI21
aI66
aI91
aI56
aI81
aI12
aI3
aI7
aI85
aI59
aI19
aI52
aI18
aI74
aI54
aI36
aI41
aI86
aI51
aI53
aI25
aI46
aI6
aI69
aI23
aI64
aI43
aI72
aI90
aI62
aI61
aI10
aI1
aI8
asI15
(lp16
I72
aI2
aI32
aI7
aI91
aI82
aI71
aI60
aI56
aI75
aI96
aI14
aI41
aI43
aI86
aI84
aI69
aI1
aI62
aI92
aI53
aI30
aI83
aI5
aI79
aI24
aI57
aI68
aI3
aI46
aI16
aI33
aI18
aI42
aI67
aI59
aI81
aI100
aI38
aI4
aI78
aI9
aI94
aI20
aI39
aI47
aI73
aI51
aI8
aI64
asI16
(lp17
I97
aI12
aI94
aI37
aI21
aI4
aI39
aI36
aI40
aI72
aI14
aI100
aI73
aI58
aI70
aI81
aI34
aI20
aI17
aI99
aI13
aI89
aI41
aI74
aI60
aI90
aI68
aI5
aI51
aI44
aI47
aI93
aI77
aI82
aI52
aI7
aI28
aI69
aI32
aI86
aI49
aI24
aI50
aI65
aI26
aI61
aI11
aI75
aI31
aI95
asI17
(lp18
I19
aI51
aI41
aI78
aI76
aI48
aI62
aI5
aI47
aI44
aI34
aI46
aI55
aI4
aI88
aI6
aI35
aI12
aI22
aI67
aI31
aI45
aI39
aI89
aI52
aI28
aI77
aI81
aI99
aI100
aI15
aI57
aI8
aI56
aI10
aI92
aI26
aI75
aI63
aI36
aI9
aI25
aI2
aI71
aI3
aI38
aI73
aI87
aI98
aI85
asI18
(lp19
I28
aI64
aI56
aI85
aI8
aI29
aI100
aI17
aI39
aI95
aI31
aI80
aI57
aI37
aI67
aI1
aI94
aI96
aI78
aI79
aI73
aI25
aI13
aI5
aI83
aI51
aI55
aI27
aI88
aI76
aI32
aI24
aI35
aI91
aI48
aI66
aI62
aI19
aI6
aI99
aI77
aI11
aI69
aI41
aI4
aI23
aI89
aI59
aI86
aI82
asI19
(lp20
I98
aI92
aI63
aI24
aI79
aI11
aI96
aI88
aI41
aI12
aI40
aI18
aI36
aI60
aI90
aI62
aI78
aI1
aI17
aI31
aI56
aI14
aI23
aI95
aI97
aI16
aI27
aI93
aI45
aI58
aI46
aI73
aI8
aI85
aI100
aI44
aI57
aI50
aI80
aI75
aI89
aI54
aI33
aI4
aI94
aI72
aI37
aI53
aI67
aI6
asI20
(lp21
I87
aI80
aI41
aI81
aI36
aI71
aI73
aI4
aI96
aI5
aI14
aI92
aI52
aI78
aI79
aI43
aI7
aI8
aI33
aI45
aI1
aI99
aI17
aI19
aI70
aI66
aI40
aI32
aI10
aI69
aI93
aI27
aI29
aI65
aI47
aI37
aI51
aI31
aI63
aI6
aI97
aI85
aI44
aI94
aI88
aI16
aI86
aI68
aI57
aI9
asI21
(lp22
I33
aI85
aI40
aI39
aI79
aI90
aI76
aI11
aI71
aI8
aI2
aI67
aI48
aI34
aI98
aI15
aI27
aI52
aI6
aI99
aI44
aI56
aI37
aI20
aI32
aI74
aI60
aI78
aI87
aI80
aI68
aI84
aI51
aI82
aI29
aI64
aI4
aI38
aI88
aI83
aI36
aI92
aI69
aI66
aI5
aI9
aI23
aI30
aI26
aI54
asI22
(lp23
I95
aI51
aI17
aI58
aI82
aI26
aI2
aI72
aI49
aI21
aI33
aI43
aI97
aI34
aI8
aI83
aI62
aI67
aI7
aI63
aI66
aI74
aI12
aI29
aI53
aI35
aI59
aI14
aI11
aI46
aI77
aI91
aI9
aI79
aI16
aI5
aI24
aI40
aI61
aI45
aI52
aI44
aI47
aI37
aI48
aI1
aI32
aI30
aI42
aI38
asI23
(lp24
I79
aI74
aI98
aI89
aI63
aI94
aI97
aI47
aI66
aI5
aI57
aI71
aI58
aI49
aI87
aI73
aI88
aI64
aI20
aI93
aI40
aI76
aI41
aI43
aI86
aI24
aI9
aI83
aI19
aI77
aI84
aI28
aI61
aI2
aI70
aI81
aI37
aI15
aI12
aI99
aI56
aI31
aI60
aI11
aI69
aI90
aI32
aI16
aI36
aI78
asI24
(lp25
I66
aI80
aI95
aI28
aI52
aI89
aI91
aI9
aI76
aI36
aI98
aI2
aI93
aI51
aI1
aI72
aI35
aI54
aI23
aI99
aI74
aI92
aI67
aI69
aI94
aI19
aI60
aI68
aI78
aI75
aI81
aI25
aI38
aI34
aI57
aI6
aI58
aI40
aI29
aI48
aI30
aI71
aI8
aI13
aI26
aI44
aI55
aI10
aI15
aI27
asI25
(lp26
I72
aI31
aI76
aI84
aI40
aI48
aI77
aI88
aI17
aI38
aI45
aI75
aI18
aI95
aI96
aI19
aI74
aI89
aI54
aI71
aI49
aI92
aI90
aI22
aI78
aI57
aI81
aI43
aI79
aI8
aI86
aI61
aI83
aI37
aI65
aI87
aI33
aI55
aI34
aI100
aI91
aI5
aI1
aI24
aI62
aI63
aI64
aI98
aI35
aI6
asI26
(lp27
I6
aI93
aI70
aI38
aI41
aI64
aI79
aI80
aI28
aI72
aI68
aI75
aI98
aI89
aI78
aI63
aI32
aI91
aI11
aI48
aI34
aI76
aI54
aI21
aI15
aI9
aI47
aI57
aI66
aI19
aI31
aI29
aI74
aI69
aI1
aI62
aI86
aI8
aI35
aI22
aI40
aI14
aI10
aI13
aI16
aI44
aI73
aI67
aI61
aI45
asI27
(lp28
I76
aI83
aI64
aI1
aI33
aI94
aI18
aI89
aI44
aI55
aI6
aI26
aI46
aI69
aI65
aI98
aI56
aI25
aI53
aI16
aI80
aI43
aI2
aI50
aI17
aI71
aI21
aI22
aI63
aI91
aI66
aI19
aI42
aI39
aI74
aI15
aI79
aI51
aI58
aI4
aI20
aI41
aI40
aI90
aI82
aI9
aI11
aI87
aI72
aI92
asI28
(lp29
I16
aI57
aI24
aI88
aI75
aI1
aI5
aI17
aI94
aI19
aI84
aI27
aI36
aI98
aI56
aI10
aI4
aI7
aI92
aI20
aI29
aI100
aI69
aI31
aI40
aI21
aI74
aI61
aI63
aI32
aI38
aI64
aI87
aI53
aI59
aI76
aI30
aI11
aI8
aI95
aI77
aI13
aI60
aI37
aI66
aI71
aI58
aI73
aI65
aI51
asI29
(lp30
I97
aI84
aI75
aI39
aI15
aI44
aI72
aI50
aI20
aI65
aI98
aI23
aI79
aI38
aI90
aI13
aI82
aI12
aI25
aI95
aI35
aI55
aI86
aI70
aI85
aI26
aI21
aI56
aI10
aI5
aI9
aI11
aI64
aI88
aI47
aI52
aI91
aI66
aI77
aI68
aI92
aI73
aI78
aI100
aI69
aI45
aI24
aI18
aI57
aI93
asI30
(lp31
I81
aI24
aI57
aI55
aI48
aI90
aI94
aI4
aI50
aI78
aI59
aI41
aI88
aI26
aI17
aI38
aI96
aI82
aI67
aI45
aI91
aI61
aI22
aI66
aI98
aI23
aI16
aI89
aI70
aI76
aI27
aI15
aI93
aI5
aI18
aI1
aI20
aI21
aI62
aI65
aI28
aI60
aI42
aI9
aI31
aI97
aI37
aI56
aI58
aI71
asI31
(lp32
I22
aI4
aI64
aI48
aI3
aI28
aI13
aI79
aI59
aI52
aI20
aI15
aI47
aI41
aI76
aI58
aI70
aI40
aI35
aI38
aI10
aI91
aI1
aI2
aI96
aI36
aI87
aI95
aI67
aI86
aI71
aI82
aI92
aI32
aI78
aI97
aI53
aI65
aI60
aI5
aI77
aI23
aI99
aI66
aI12
aI51
aI9
aI42
aI11
aI6
asI32
(lp33
I86
aI39
aI56
aI65
aI61
aI30
aI31
aI75
aI82
aI66
aI47
aI98
aI78
aI90
aI23
aI59
aI94
aI54
aI18
aI49
aI8
aI35
aI52
aI72
aI80
aI44
aI2
aI9
aI28
aI63
aI20
aI51
aI48
aI27
aI62
aI5
aI79
aI64
aI3
aI16
aI96
aI97
aI29
aI6
aI89
aI91
aI25
aI7
aI43
aI40
asI33
(lp34
I17
aI46
aI99
aI90
aI70
aI9
aI6
aI98
aI72
aI68
aI24
aI14
aI97
aI58
aI88
aI73
aI7
aI94
aI61
aI77
aI92
aI10
aI28
aI57
aI45
aI51
aI75
aI48
aI80
aI36
aI43
aI8
aI49
aI56
aI82
aI69
aI38
aI100
aI85
aI5
aI25
aI42
aI78
aI54
aI21
aI13
aI32
aI60
aI71
aI23
asI34
(lp35
I76
aI52
aI75
aI73
aI23
aI4
aI28
aI57
aI60
aI45
aI78
aI6
aI24
aI17
aI7
aI58
aI54
aI83
aI30
aI42
aI93
aI33
aI35
aI25
aI88
aI67
aI71
aI81
aI15
aI70
aI1
aI59
aI55
aI90
aI97
aI20
aI96
aI22
aI51
aI14
aI85
aI12
aI8
aI44
aI100
aI39
aI2
aI95
aI10
aI19
asI35
(lp36
I46
aI83
aI89
aI71
aI95
aI14
aI73
aI93
aI31
aI28
aI49
aI6
aI27
aI43
aI63
aI57
aI25
aI70
aI2
aI4
aI52
aI66
aI48
aI67
aI13
aI39
aI68
aI53
aI7
aI29
aI59
aI91
aI24
aI16
aI82
aI47
aI18
aI54
aI87
aI56
aI30
aI65
aI84
aI61
aI99
aI17
aI51
aI34
aI86
aI72
asI36
(lp37
I49
aI54
aI90
aI13
aI64
aI67
aI52
aI32
aI61
aI94
aI55
aI33
aI22
aI50
aI58
aI97
aI76
aI79
aI96
aI41
aI47
aI8
aI87
aI88
aI35
aI70
aI51
aI85
aI37
aI31
aI53
aI15
aI73
aI71
aI93
aI84
aI28
aI78
aI12
aI65
aI2
aI23
aI99
aI11
aI69
aI95
aI91
aI92
aI45
aI16
asI37
(lp38
I33
aI74
aI30
aI84
aI1
aI82
aI61
aI80
aI77
aI16
aI86
aI28
aI23
aI96
aI6
aI98
aI19
aI72
aI11
aI76
aI53
aI85
aI89
aI29
aI27
aI88
aI41
aI100
aI7
aI24
aI35
aI42
aI26
aI57
aI40
aI81
aI95
aI3
aI4
aI22
aI62
aI94
aI59
aI71
aI10
aI93
aI34
aI32
aI47
aI87
asI38
(lp39
I20
aI36
aI5
aI57
aI16
aI39
aI18
aI68
aI1
aI55
aI72
aI99
aI96
aI9
aI97
aI48
aI86
aI11
aI70
aI24
aI64
aI83
aI75
aI94
aI47
aI21
aI77
aI29
aI52
aI88
aI32
aI28
aI91
aI37
aI92
aI44
aI17
aI60
aI10
aI31
aI73
aI41
aI54
aI85
aI80
aI2
aI100
aI89
aI25
aI6
asI39
(lp40
I17
aI100
aI7
aI22
aI57
aI88
aI99
aI96
aI87
aI93
aI4
aI98
aI49
aI97
aI31
aI69
aI28
aI59
aI64
aI46
aI73
aI70
aI27
aI56
aI10
aI95
aI81
aI42
aI54
aI14
aI62
aI90
aI78
aI65
aI35
aI23
aI91
aI44
aI86
aI26
aI72
aI71
aI9
aI53
aI33
aI83
aI80
aI19
aI1
aI38
asI40
(lp41
I65
aI23
aI63
aI20
aI36
aI77
aI68
aI94
aI30
aI51
aI22
aI56
aI12
aI91
aI10
aI83
aI8
aI53
aI61
aI16
aI33
aI2
aI35
aI74
aI48
aI67
aI17
aI57
aI47
aI41
aI18
aI80
aI38
aI55
aI81
aI87
aI90
aI86
aI79
aI29
aI58
aI96
aI99
aI95
aI15
aI24
aI89
aI7
aI97
aI100
asI41
(lp42
I78
aI89
aI49
aI18
aI42
aI91
aI1
aI81
aI93
aI90
aI35
aI59
aI53
aI31
aI21
aI62
aI44
aI67
aI20
aI14
aI94
aI6
aI19
aI37
aI7
aI57
aI77
aI33
aI15
aI68
aI74
aI63
aI46
aI79
aI52
aI51
aI73
aI71
aI70
aI32
aI72
aI9
aI61
aI47
aI85
aI22
aI56
aI99
aI5
aI80
asI42
(lp43
I10
aI28
aI45
aI76
aI17
aI24
aI14
aI31
aI63
aI18
aI7
aI95
aI98
aI62
aI34
aI71
aI52
aI87
aI69
aI39
aI35
aI27
aI33
aI74
aI99
aI50
aI66
aI23
aI70
aI13
aI38
aI90
aI80
aI79
aI19
aI89
aI5
aI12
aI59
aI57
aI3
aI73
aI55
aI32
aI96
aI61
aI100
aI58
aI97
aI36
asI43
(lp44
I27
aI72
aI24
aI56
aI40
aI57
aI13
aI29
aI31
aI51
aI15
aI28
aI48
aI96
aI69
aI53
aI50
aI3
aI36
aI90
aI1
aI98
aI62
aI66
aI42
aI12
aI18
aI55
aI82
aI17
aI49
aI86
aI22
aI64
aI41
aI92
aI16
aI8
aI94
aI75
aI67
aI30
aI46
aI47
aI45
aI34
aI70
aI63
aI6
aI23
asI44
(lp45
I67
aI1
aI36
aI82
aI81
aI40
aI62
aI51
aI72
aI66
aI71
aI7
aI50
aI77
aI65
aI54
aI92
aI46
aI95
aI64
aI86
aI47
aI57
aI18
aI42
aI90
aI93
aI69
aI30
aI78
aI75
aI73
aI76
aI45
aI31
aI13
aI41
aI27
aI35
aI94
aI84
aI4
aI85
aI48
aI52
aI5
aI68
aI24
aI3
aI19
asI45
(lp46
I51
aI70
aI5
aI34
aI72
aI11
aI75
aI68
aI44
aI83
aI9
aI71
aI87
aI35
aI50
aI25
aI6
aI18
aI99
aI59
aI94
aI2
aI19
aI97
aI96
aI3
aI95
aI60
aI32
aI17
aI100
aI92
aI33
aI22
aI1
aI91
aI74
aI86
aI77
aI12
aI84
aI15
aI67
aI54
aI31
aI65
aI58
aI39
aI76
aI85
asI46
(lp47
I56
aI86
aI57
aI68
aI25
aI53
aI36
aI26
aI49
aI22
aI88
aI69
aI61
aI6
aI21
aI9
aI30
aI96
aI31
aI71
aI17
aI81
aI18
aI13
aI50
aI12
aI63
aI40
aI82
aI8
aI35
aI87
aI52
aI3
aI70
aI55
aI28
aI44
aI19
aI67
aI34
aI90
aI58
aI7
aI65
aI14
aI64
aI97
aI27
aI10
asI47
(lp48
I29
aI25
aI10
aI51
aI5
aI3
aI50
aI22
aI36
aI88
aI91
aI68
aI49
aI80
aI19
aI87
aI52
aI78
aI33
aI66
aI83
aI59
aI13
aI61
aI11
aI2
aI65
aI97
aI26
aI1
aI96
aI28
aI74
aI27
aI37
aI60
aI20
aI9
aI14
aI95
aI92
aI69
aI75
aI62
aI45
aI57
aI81
aI7
aI89
aI17
asI48
(lp49
I64
aI99
aI46
aI38
aI12
aI80
aI29
aI14
aI50
aI19
aI79
aI91
aI66
aI94
aI2
aI40
aI23
aI9
aI71
aI73
aI45
aI74
aI51
aI62
aI36
aI76
aI24
aI20
aI65
aI6
aI52
aI28
aI57
aI90
aI69
aI58
aI84
aI41
aI60
aI27
aI44
aI37
aI43
aI25
aI93
aI100
aI15
aI61
aI8
aI35
asI49
(lp50
I97
aI33
aI50
aI10
aI25
aI55
aI39
aI84
aI17
aI61
aI11
aI13
aI100
aI59
aI93
aI71
aI42
aI16
aI77
aI3
aI27
aI31
aI64
aI6
aI36
aI85
aI99
aI47
aI83
aI38
aI46
aI48
aI78
aI90
aI65
aI53
aI94
aI37
aI29
aI79
aI21
aI60
aI28
aI73
aI9
aI23
aI87
aI1
aI75
aI41
asI50
(lp51
I97
aI36
aI58
aI6
aI20
aI82
aI10
aI49
aI16
aI34
aI71
aI92
aI64
aI48
aI3
aI60
aI15
aI27
aI4
aI51
aI98
aI40
aI9
aI12
aI76
aI11
aI74
aI26
aI37
aI75
aI7
aI18
aI94
aI72
aI5
aI77
aI95
aI44
aI85
aI14
aI80
aI13
aI38
aI57
aI73
aI31
aI67
aI1
aI2
aI22
asI51
(lp52
I67
aI61
aI50
aI41
aI52
aI5
aI88
aI69
aI27
aI81
aI86
aI23
aI66
aI97
aI55
aI17
aI14
aI34
aI11
aI70
aI100
aI75
aI19
aI20
aI96
aI45
aI48
aI1
aI16
aI40
aI4
aI64
aI22
aI73
aI35
aI53
aI39
aI91
aI3
aI2
aI25
aI71
aI93
aI29
aI63
aI77
aI30
aI85
aI74
aI89
asI52
(lp53
I62
aI74
aI2
aI85
aI68
aI40
aI13
aI75
aI58
aI98
aI8
aI82
aI45
aI46
aI63
aI86
aI28
aI27
aI41
aI81
aI69
aI22
aI11
aI21
aI1
aI42
aI93
aI65
aI89
aI47
aI30
aI9
aI49
aI44
aI53
aI31
aI10
aI4
aI12
aI80
aI87
aI39
aI14
aI36
aI56
aI72
aI19
aI5
aI66
aI48
asI53
(lp54
I5
aI26
aI22
aI83
aI50
aI38
aI15
aI78
aI2
aI63
aI100
aI76
aI52
aI74
aI51
aI8
aI17
aI79
aI86
aI64
aI73
aI49
aI32
aI24
aI29
aI55
aI36
aI30
aI43
aI18
aI90
aI42
aI27
aI97
aI45
aI84
aI1
aI46
aI56
aI61
aI21
aI68
aI85
aI19
aI48
aI23
aI87
aI66
aI75
aI41
asI54
(lp55
I82
aI56
aI34
aI21
aI15
aI65
aI48
aI96
aI7
aI31
aI64
aI66
aI68
aI17
aI39
aI52
aI30
aI6
aI18
aI99
aI87
aI22
aI40
aI77
aI20
aI45
aI73
aI35
aI1
aI60
aI90
aI81
aI89
aI26
aI37
aI59
aI95
aI94
aI79
aI13
aI85
aI10
aI98
aI72
aI78
aI53
aI5
aI63
aI32
aI2
asI55
(lp56
I19
aI62
aI41
aI21
aI81
aI84
aI100
aI52
aI72
aI64
aI18
aI25
aI29
aI39
aI80
aI77
aI74
aI71
aI2
aI13
aI12
aI32
aI67
aI89
aI30
aI91
aI93
aI26
aI95
aI85
aI7
aI6
aI76
aI78
aI82
aI94
aI97
aI61
aI35
aI63
aI53
aI43
aI3
aI69
aI66
aI99
aI4
aI68
aI36
aI79
asI56
(lp57
I81
aI10
aI17
aI29
aI55
aI99
aI30
aI79
aI42
aI20
aI58
aI4
aI38
aI27
aI84
aI11
aI73
aI7
aI83
aI23
aI49
aI61
aI50
aI80
aI94
aI26
aI19
aI77
aI98
aI69
aI35
aI9
aI21
aI72
aI89
aI8
aI67
aI78
aI41
aI48
aI47
aI18
aI65
aI16
aI1
aI40
aI96
aI32
aI34
aI2
asI57
(lp58
I5
aI23
aI60
aI61
aI64
aI11
aI72
aI18
aI49
aI58
aI35
aI20
aI93
aI15
aI43
aI82
aI96
aI9
aI80
aI17
aI19
aI71
aI24
aI33
aI52
aI91
aI79
aI68
aI55
aI81
aI21
aI38
aI66
aI59
aI37
aI92
aI90
aI75
aI56
aI67
aI83
aI97
aI50
aI65
aI14
aI62
aI48
aI89
aI8
aI87
asI58
(lp59
I21
aI56
aI72
aI90
aI23
aI37
aI38
aI3
aI76
aI75
aI74
aI68
aI97
aI28
aI15
aI82
aI95
aI13
aI93
aI66
aI59
aI53
aI22
aI36
aI79
aI49
aI52
aI92
aI9
aI17
aI80
aI85
aI100
aI24
aI46
aI81
aI65
aI62
aI54
aI20
aI5
aI12
aI89
aI61
aI51
aI88
aI71
aI39
aI60
aI31
asI59
(lp60
I21
aI99
aI52
aI88
aI30
aI81
aI49
aI94
aI89
aI29
aI53
aI2
aI1
aI95
aI70
aI48
aI31
aI100
aI66
aI27
aI76
aI98
aI14
aI74
aI34
aI58
aI62
aI8
aI61
aI19
aI64
aI93
aI5
aI24
aI32
aI50
aI79
aI16
aI60
aI97
aI82
aI85
aI44
aI41
aI65
aI15
aI46
aI10
aI73
aI87
asI60
(lp61
I59
aI97
aI81
aI38
aI72
aI86
aI7
aI43
aI68
aI57
aI9
aI89
aI94
aI30
aI100
aI45
aI69
aI55
aI83
aI78
aI14
aI37
aI42
aI8
aI50
aI92
aI77
aI64
aI17
aI27
aI93
aI36
aI49
aI48
aI41
aI13
aI80
aI96
aI33
aI76
aI15
aI35
aI39
aI82
aI40
aI74
aI99
aI90
aI22
aI20
asI61
(lp62
I10
aI53
aI85
aI28
aI65
aI51
aI80
aI96
aI18
aI15
aI40
aI69
aI83
aI64
aI3
aI6
aI84
aI21
aI45
aI71
aI60
aI87
aI47
aI19
aI39
aI17
aI27
aI22
aI55
aI98
aI59
aI100
aI1
aI4
aI23
aI95
aI67
aI70
aI35
aI54
aI30
aI48
aI77
aI31
aI37
aI24
aI16
aI38
aI57
aI74
asI62
(lp63
I69
aI37
aI72
aI81
aI84
aI25
aI65
aI92
aI57
aI28
aI29
aI93
aI47
aI41
aI78
aI79
aI22
aI95
aI74
aI16
aI5
aI50
aI73
aI42
aI23
aI33
aI94
aI10
aI14
aI40
aI11
aI35
aI21
aI38
aI24
aI6
aI100
aI34
aI18
aI89
aI64
aI76
aI45
aI9
aI63
aI30
aI54
aI46
aI49
aI31
asI63
(lp64
I54
aI15
aI43
aI8
aI72
aI82
aI25
aI38
aI17
aI46
aI7
aI62
aI74
aI73
aI83
aI34
aI18
aI12
aI14
aI22
aI11
aI36
aI71
aI99
aI92
aI88
aI61
aI31
aI50
aI80
aI16
aI89
aI85
aI90
aI86
aI37
aI24
aI66
aI53
aI3
aI29
aI44
aI70
aI64
aI76
aI58
aI6
aI26
aI93
aI84
asI64
(lp65
I39
aI49
aI7
aI33
aI52
aI77
aI68
aI47
aI92
aI9
aI93
aI73
aI27
aI13
aI100
aI61
aI90
aI95
aI59
aI94
aI78
aI91
aI20
aI38
aI15
aI75
aI45
aI99
aI11
aI36
aI97
aI72
aI24
aI58
aI6
aI30
aI60
aI22
aI43
aI41
aI31
aI85
aI34
aI80
aI54
aI10
aI74
aI19
aI87
aI8
asI65
(lp66
I86
aI64
aI6
aI18
aI50
aI19
aI67
aI35
aI33
aI8
aI56
aI32
aI96
aI95
aI91
aI52
aI80
aI87
aI73
aI25
aI10
aI99
aI36
aI89
aI60
aI29
aI20
aI2
aI44
aI75
aI100
aI78
aI98
aI24
aI26
aI93
aI21
aI94
aI79
aI48
aI3
aI49
aI69
aI1
aI68
aI71
aI59
aI70
aI76
aI4
asI66
(lp67
I22
aI31
aI23
aI95
aI2
aI98
aI69
aI52
aI93
aI99
aI81
aI79
aI30
aI48
aI26
aI41
aI56
aI75
aI37
aI43
aI19
aI82
aI33
aI78
aI55
aI61
aI100
aI73
aI77
aI28
aI7
aI59
aI86
aI68
aI45
aI72
aI10
aI74
aI29
aI32
aI94
aI35
aI20
aI36
aI8
aI67
aI25
aI16
aI85
aI47
asI67
(lp68
I92
aI60
aI8
aI49
aI58
aI47
aI63
aI78
aI61
aI90
aI21
aI83
aI53
aI70
aI42
aI16
aI73
aI45
aI64
aI66
aI87
aI57
aI30
aI50
aI37
aI14
aI29
aI18
aI31
aI94
aI43
aI65
aI52
aI41
aI80
aI75
aI51
aI22
aI95
aI40
aI24
aI28
aI93
aI55
aI76
aI69
aI44
aI89
aI99
aI82
asI68
(lp69
I27
aI12
aI26
aI86
aI90
aI3
aI100
aI8
aI22
aI51
aI15
aI28
aI84
aI93
aI50
aI95
aI81
aI66
aI99
aI11
aI46
aI2
aI30
aI60
aI92
aI10
aI97
aI23
aI54
aI76
aI91
aI13
aI87
aI31
aI94
aI1
aI19
aI36
aI63
aI53
aI7
aI77
aI6
aI56
aI73
aI44
aI64
aI82
aI21
aI57
asI69
(lp70
I31
aI96
aI49
aI41
aI7
aI75
aI82
aI47
aI38
aI98
aI57
aI40
aI63
aI74
aI37
aI56
aI50
aI91
aI90
aI46
aI25
aI64
aI95
aI92
aI85
aI66
aI76
aI71
aI27
aI34
aI84
aI13
aI65
aI16
aI72
aI5
aI77
aI97
aI36
aI44
aI52
aI32
aI2
aI80
aI45
aI88
aI81
aI11
aI21
aI35
asI70
(lp71
I57
aI11
aI4
aI100
aI44
aI98
aI15
aI20
aI2
aI60
aI69
aI19
aI50
aI65
aI56
aI10
aI23
aI32
aI64
aI85
aI81
aI84
aI87
aI22
aI13
aI53
aI83
aI52
aI55
aI90
aI77
aI86
aI17
aI78
aI91
aI5
aI74
aI95
aI54
aI66
aI3
aI76
aI88
aI25
aI8
aI6
aI26
aI39
aI12
aI1
asI71
(lp72
I86
aI35
aI94
aI60
aI4
aI19
aI93
aI11
aI50
aI47
aI39
aI82
aI96
aI67
aI45
aI62
aI8
aI6
aI48
aI99
aI69
aI73
aI80
aI13
aI88
aI70
aI63
aI27
aI12
aI3
aI66
aI81
aI36
aI18
aI57
aI92
aI76
aI54
aI29
aI75
aI24
aI72
aI7
aI42
aI33
aI91
aI25
aI56
aI38
aI10
asI72
(lp73
I12
aI95
aI49
aI27
aI67
aI24
aI64
aI76
aI100
aI65
aI13
aI26
aI10
aI61
aI31
aI79
aI93
aI55
aI16
aI38
aI57
aI62
aI5
aI19
aI33
aI8
aI66
aI6
aI60
aI14
aI17
aI69
aI63
aI20
aI29
aI39
aI73
aI91
aI51
aI56
aI85
aI21
aI96
aI83
aI40
aI15
aI37
aI54
aI23
aI68
asI73
(lp74
I88
aI85
aI52
aI14
aI31
aI36
aI86
aI45
aI64
aI44
aI59
aI33
aI40
aI71
aI48
aI99
aI34
aI69
aI76
aI62
aI57
aI23
aI60
aI12
aI24
aI79
aI81
aI96
aI89
aI97
aI65
aI43
aI50
aI21
aI42
aI38
aI16
aI10
aI5
aI51
aI66
aI27
aI80
aI29
aI53
aI68
aI4
aI87
aI67
aI95
asI74
(lp75
I36
aI42
aI69
aI100
aI76
aI47
aI12
aI81
aI17
aI35
aI3
aI87
aI98
aI90
aI94
aI6
aI80
aI89
aI77
aI88
aI24
aI55
aI72
aI71
aI65
aI96
aI97
aI78
aI40
aI73
aI57
aI32
aI79
aI2
aI93
aI44
aI16
aI70
aI56
aI53
aI64
aI60
aI28
aI75
aI19
aI21
aI83
aI62
aI51
aI1
asI75
(lp76
I87
aI7
aI15
aI66
aI29
aI2
aI93
aI74
aI37
aI57
aI49
aI31
aI9
aI77
aI71
aI100
aI30
aI17
aI72
aI44
aI18
aI97
aI27
aI52
aI86
aI91
aI3
aI88
aI84
aI16
aI82
aI62
aI51
aI46
aI11
aI24
aI69
aI50
aI90
aI39
aI8
aI21
aI65
aI40
aI10
aI32
aI38
aI64
aI33
aI25
asI76
(lp77
I45
aI36
aI1
aI91
aI53
aI35
aI3
aI94
aI80
aI66
aI12
aI60
aI29
aI50
aI61
aI43
aI93
aI77
aI33
aI28
aI18
aI52
aI20
aI21
aI62
aI39
aI41
aI37
aI69
aI47
aI100
aI89
aI55
aI86
aI82
aI70
aI27
aI13
aI48
aI88
aI74
aI63
aI2
aI42
aI68
aI87
aI84
aI56
aI25
aI67
asI77
(lp78
I21
aI18
aI95
aI68
aI78
aI71
aI48
aI61
aI88
aI42
aI56
aI28
aI90
aI3
aI24
aI11
aI64
aI85
aI94
aI5
aI26
aI66
aI45
aI72
aI13
aI37
aI16
aI87
aI14
aI52
aI15
aI44
aI92
aI58
aI62
aI73
aI59
aI43
aI74
aI41
aI91
aI67
aI39
aI31
aI20
aI12
aI8
aI55
aI98
aI25
asI78
(lp79
I76
aI66
aI18
aI7
aI17
aI99
aI89
aI96
aI62
aI82
aI16
aI5
aI39
aI73
aI30
aI85
aI20
aI22
aI50
aI94
aI92
aI100
aI12
aI97
aI47
aI83
aI40
aI34
aI87
aI33
aI63
aI60
aI86
aI45
aI6
aI57
aI52
aI4
aI43
aI91
aI14
aI19
aI93
aI51
aI72
aI95
aI70
aI10
aI11
aI35
asI79
(lp80
I70
aI90
aI68
aI32
aI27
aI22
aI44
aI67
aI34
aI41
aI40
aI5
aI3
aI59
aI15
aI48
aI63
aI52
aI13
aI98
aI19
aI46
aI100
aI43
aI4
aI25
aI35
aI85
aI7
aI61
aI20
aI69
aI21
aI37
aI92
aI66
aI23
aI80
aI12
aI56
aI51
aI54
aI83
aI75
aI39
aI78
aI71
aI6
aI16
aI18
asI80
(lp81
I20
aI40
aI39
aI86
aI57
aI74
aI56
aI53
aI63
aI42
aI93
aI67
aI49
aI91
aI84
aI16
aI9
aI21
aI98
aI44
aI35
aI25
aI64
aI89
aI52
aI73
aI43
aI7
aI99
aI28
aI81
aI48
aI55
aI96
aI95
aI38
aI60
aI17
aI33
aI59
aI6
aI97
aI1
aI83
aI92
aI31
aI34
aI32
aI88
aI36
asI81
(lp82
I52
aI37
aI6
aI50
aI19
aI75
aI99
aI100
aI38
aI89
aI35
aI17
aI36
aI71
aI67
aI25
aI90
aI4
aI13
aI47
aI34
aI7
aI77
aI18
aI16
aI70
aI53
aI63
aI9
aI28
aI66
aI57
aI64
aI42
aI58
aI85
aI93
aI23
aI8
aI73
aI46
aI29
aI95
aI14
aI59
aI83
aI60
aI80
aI49
aI79
asI82
(lp83
I59
aI97
aI16
aI76
aI83
aI93
aI70
aI49
aI22
aI95
aI37
aI88
aI8
aI90
aI36
aI100
aI17
aI75
aI66
aI40
aI28
aI41
aI20
aI25
aI92
aI46
aI74
aI52
aI68
aI78
aI79
aI34
aI3
aI1
aI5
aI86
aI65
aI12
aI33
aI7
aI39
aI48
aI64
aI43
aI89
aI51
aI53
aI85
aI13
aI31
asI83
(lp84
I84
aI44
aI98
aI90
aI55
aI69
aI47
aI65
aI79
aI28
aI81
aI2
aI46
aI8
aI70
aI63
aI57
aI7
aI43
aI19
aI93
aI97
aI60
aI76
aI4
aI45
aI26
aI29
aI16
aI27
aI96
aI82
aI88
aI30
aI62
aI86
aI64
aI31
aI58
aI9
aI92
aI39
aI53
aI94
aI38
aI77
aI71
aI95
aI24
aI32
asI84
(lp85
I55
aI78
aI3
aI83
aI57
aI61
aI36
aI49
aI77
aI97
aI89
aI47
aI91
aI2
aI59
aI40
aI87
aI72
aI62
aI74
aI75
aI43
aI13
aI14
aI46
aI67
aI17
aI4
aI60
aI11
aI64
aI12
aI56
aI73
aI29
aI76
aI27
aI28
aI8
aI96
aI35
aI95
aI48
aI18
aI88
aI53
aI68
aI100
aI70
aI5
asI85
(lp86
I94
aI28
aI60
aI11
aI57
aI4
aI99
aI83
aI82
aI6
aI39
aI59
aI14
aI61
aI64
aI2
aI79
aI34
aI24
aI81
aI55
aI18
aI47
aI19
aI16
aI96
aI32
aI31
aI76
aI40
aI52
aI66
aI9
aI35
aI1
aI68
aI10
aI51
aI56
aI36
aI95
aI90
aI62
aI71
aI15
aI77
aI97
aI89
aI54
aI27
asI86
(lp87
I31
aI84
aI55
aI54
aI71
aI14
aI79
aI70
aI74
aI92
aI9
aI40
aI58
aI90
aI51
aI97
aI83
aI81
aI82
aI17
aI94
aI59
aI69
aI26
aI64
aI46
aI89
aI38
aI45
aI75
aI20
aI65
aI66
aI98
aI43
aI96
aI95
aI44
aI76
aI22
aI99
aI33
aI4
aI80
aI27
aI6
aI39
aI36
aI88
aI18
asI87
(lp88
I80
aI25
aI34
aI36
aI52
aI96
aI100
aI53
aI60
aI69
aI4
aI72
aI62
aI7
aI61
aI70
aI90
aI47
aI21
aI89
aI51
aI18
aI75
aI74
aI2
aI29
aI79
aI46
aI57
aI56
aI20
aI58
aI54
aI9
aI94
aI8
aI59
aI92
aI41
aI77
aI50
aI93
aI73
aI12
aI65
aI37
aI81
aI28
aI68
aI76
asI88
(lp89
I68
aI37
aI25
aI54
aI1
aI59
aI61
aI9
aI70
aI22
aI47
aI87
aI40
aI62
aI41
aI42
aI38
aI97
aI75
aI98
aI92
aI20
aI74
aI77
aI33
aI30
aI50
aI21
aI36
aI85
aI7
aI99
aI60
aI31
aI4
aI53
aI65
aI45
aI46
aI16
aI84
aI80
aI26
aI52
aI64
aI49
aI17
aI73
aI19
aI86
asI89
(lp90
I74
aI17
aI61
aI84
aI72
aI26
aI54
aI51
aI91
aI81
aI35
aI65
aI24
aI9
aI55
aI82
aI49
aI99
aI100
aI52
aI64
aI78
aI86
aI46
aI32
aI4
aI18
aI58
aI83
aI88
aI30
aI28
aI57
aI95
aI77
aI63
aI45
aI70
aI47
aI25
aI59
aI48
aI39
aI92
aI1
aI42
aI15
aI41
aI20
aI50
asI90
(lp91
I45
aI53
aI51
aI82
aI58
aI29
aI66
aI65
aI81
aI12
aI68
aI19
aI26
aI98
aI9
aI86
aI36
aI71
aI88
aI91
aI34
aI100
aI50
aI70
aI14
aI77
aI59
aI49
aI39
aI33
aI67
aI54
aI18
aI31
aI2
aI32
aI3
aI43
aI89
aI15
aI20
aI56
aI95
aI63
aI8
aI61
aI6
aI37
aI48
aI46
asI91
(lp92
I17
aI12
aI74
aI5
aI31
aI62
aI72
aI75
aI92
aI9
aI63
aI58
aI65
aI32
aI89
aI30
aI39
aI35
aI96
aI34
aI24
aI82
aI77
aI87
aI18
aI41
aI83
aI14
aI66
aI80
aI56
aI50
aI25
aI20
aI36
aI95
aI64
aI2
aI27
aI46
aI73
aI61
aI68
aI76
aI3
aI37
aI8
aI98
aI97
aI60
asI92
(lp93
I71
aI55
aI45
aI22
aI96
aI49
aI56
aI54
aI74
aI88
aI7
aI25
aI85
aI84
aI70
aI46
aI20
aI64
aI26
aI3
aI89
aI8
aI53
aI95
aI36
aI99
aI63
aI37
aI32
aI86
aI38
aI11
aI61
aI90
aI77
aI65
aI1
aI19
aI48
aI69
aI79
aI17
aI51
aI67
aI23
aI27
aI76
aI82
aI39
aI34
asI93
(lp94
I72
aI23
aI58
aI64
aI8
aI33
aI98
aI39
aI36
aI48
aI16
aI82
aI17
aI54
aI94
aI45
aI37
aI6
aI35
aI100
aI78
aI27
aI88
aI96
aI79
aI50
aI38
aI76
aI20
aI65
aI68
aI24
aI44
aI80
aI83
aI13
aI41
aI63
aI31
aI89
aI30
aI81
aI1
aI57
aI66
aI43
aI14
aI29
aI95
aI40
asI94
(lp95
I33
aI72
aI79
aI30
aI43
aI11
aI74
aI44
aI19
aI52
aI17
aI28
aI40
aI54
aI10
aI88
aI61
aI37
aI26
aI18
aI86
aI70
aI98
aI81
aI41
aI32
aI38
aI60
aI14
aI68
aI59
aI51
aI75
aI25
aI82
aI27
aI80
aI35
aI6
aI92
aI66
aI73
aI96
aI36
aI67
aI85
aI13
aI77
aI15
aI53
asI95
(lp96
I84
aI27
aI2
aI39
aI45
aI16
aI36
aI60
aI76
aI25
aI72
aI53
aI89
aI80
aI46
aI83
aI51
aI42
aI44
aI13
aI88
aI23
aI52
aI35
aI56
aI77
aI38
aI74
aI85
aI94
aI57
aI69
aI18
aI17
aI64
aI61
aI7
aI98
aI33
aI86
aI10
aI63
aI3
aI70
aI55
aI9
aI32
aI37
aI91
aI41
asI96
(lp97
I18
aI5
aI6
aI35
aI90
aI28
aI38
aI12
aI51
aI19
aI17
aI52
aI27
aI32
aI10
aI84
aI1
aI80
aI61
aI97
aI47
aI23
aI41
aI56
aI69
aI30
aI58
aI25
aI9
aI29
aI48
aI24
aI42
aI37
aI55
aI53
aI77
aI76
aI15
aI86
aI8
aI40
aI91
aI85
aI94
aI46
aI34
aI89
aI49
aI68
asI97
(lp98
I56
aI35
aI62
aI69
aI44
aI76
aI47
aI54
aI11
aI92
aI74
aI28
aI31
aI50
aI13
aI20
aI18
aI5
aI26
aI49
aI23
aI81
aI73
aI93
aI85
aI63
aI48
aI94
aI25
aI52
aI59
aI87
aI90
aI15
aI3
aI100
aI98
aI45
aI14
aI72
aI40
aI29
aI75
aI21
aI42
aI16
aI33
aI34
aI17
aI96
asI98
(lp99
I66
aI30
aI58
aI91
aI50
aI11
aI19
aI72
aI3
aI78
aI32
aI29
aI65
aI62
aI68
aI26
aI24
aI82
aI23
aI46
aI84
aI25
aI49
aI69
aI75
aI64
aI38
aI8
aI81
aI54
aI41
aI7
aI89
aI12
aI76
aI45
aI80
aI90
aI67
aI60
aI4
aI57
aI39
aI37
aI93
aI10
aI27
aI18
aI52
aI5
asI99
(lp100
I13
aI47
aI29
aI74
aI78
aI48
aI24
aI57
aI15
aI39
aI17
aI70
aI3
aI54
aI12
aI46
aI30
aI81
aI25
aI80
aI71
aI16
aI42
aI53
aI36
aI83
aI95
aI88
aI65
aI76
aI91
aI75
aI10
aI21
aI51
aI62
aI26
aI96
aI69
aI60
aI44
aI93
aI97
aI1
aI79
aI2
aI19
aI89
aI37
aI38
asI100
(lp101
I45
aI73
aI77
aI10
aI16
aI33
aI78
aI80
aI57
aI46
aI18
aI13
aI24
aI69
aI11
aI30
aI6
aI86
aI82
aI68
aI20
aI15
aI55
aI83
aI38
aI51
aI26
aI48
aI98
aI43
aI92
aI31
aI34
aI40
aI50
aI60
aI61
aI74
aI8
aI54
aI29
aI52
aI19
aI42
aI97
aI70
aI1
aI28
aI22
aI17
as.