(dp1
I1
(lp2
I167
aI90
aI140
aI147
aI5
aI331
aI94
aI234
aI452
aI419
aI95
aI464
aI127
aI369
aI154
aI41
aI362
aI429
aI106
aI267
aI149
aI487
aI354
aI119
aI426
aI489
aI495
aI189
aI160
aI266
aI455
aI337
aI79
aI413
aI398
aI172
aI143
aI92
aI403
aI74
aI477
aI252
aI303
aI415
aI417
aI436
aI217
aI155
aI243
aI428
asI2
(lp3
I77
aI232
aI268
aI33
aI461
aI75
aI13
aI183
aI378
aI486
aI479
aI150
aI401
aI435
aI398
aI408
aI471
aI223
aI245
aI230
aI247
aI475
aI333
aI84
aI194
aI108
aI196
aI120
aI433
aI385
aI441
aI104
aI242
aI26
aI243
aI128
aI214
aI55
aI239
aI54
aI187
aI76
aI228
aI198
aI355
aI267
aI350
aI225
aI393
aI133
asI3
(lp4
I407
aI258
aI260
aI20
aI336
aI362
aI22
aI402
aI446
aI185
aI103
aI168
aI499
aI435
aI430
aI124
aI420
aI47
aI470
aI484
aI137
aI467
aI254
aI299
aI181
aI211
aI377
aI483
aI266
aI429
aI276
aI289
aI159
aI396
aI242
aI379
aI76
aI335
aI7
aI442
aI391
aI65
aI15
aI312
aI220
aI348
aI339
aI223
aI395
aI319
asI4
(lp5
I38
aI438
aI57
aI432
aI196
aI78
aI468
aI419
aI373
aI333
aI155
aI317
aI445
aI481
aI295
aI358
aI461
aI292
aI435
aI7
aI264
aI344
aI456
aI430
aI458
aI73
aI494
aI154
aI409
aI362
aI159
aI379
aI350
aI110
aI406
aI395
aI447
aI226
aI202
aI47
aI163
aI436
aI367
aI201
aI451
aI132
aI437
aI487
aI51
aI35
asI5
(lp6
I221
aI498
aI323
aI175
aI8
aI391
aI327
aI40
aI113
aI369
aI325
aI436
aI185
aI386
aI242
aI131
aI271
aI203
aI493
aI381
aI452
aI166
aI160
aI500
aI483
aI335
aI464
aI249
aI373
aI278
aI191
aI350
aI265
aI485
aI117
aI56
aI250
aI98
aI197
aI42
aI310
aI289
aI156
aI223
aI374
aI238
aI107
aI418
aI167
aI73
asI6
(lp7
I415
aI358
aI136
aI360
aI377
aI334
aI104
aI11
aI83
aI23
aI103
aI424
aI120
aI330
aI174
aI308
aI68
aI145
aI316
aI166
aI391
aI64
aI323
aI367
aI429
aI421
aI108
aI414
aI148
aI264
aI475
aI409
aI447
aI75
aI107
aI217
aI195
aI84
aI184
aI81
aI406
aI22
aI374
aI288
aI419
aI452
aI315
aI114
aI356
aI91
asI7
(lp8
I26
aI281
aI468
aI471
aI172
aI252
aI461
aI272
aI456
aI475
aI233
aI354
aI150
aI61
aI97
aI129
aI51
aI449
aI452
aI158
aI239
aI312
aI11
aI151
aI339
aI387
aI116
aI173
aI251
aI108
aI375
aI127
aI188
aI58
aI311
aI4
aI268
aI36
aI203
aI309
aI288
aI304
aI388
aI383
aI77
aI50
aI377
aI2
aI99
aI89
asI8
(lp9
I240
aI214
aI129
aI225
aI417
aI170
aI335
aI269
aI309
aI336
aI107
aI272
aI66
aI177
aI288
aI17
aI468
aI401
aI251
aI425
aI263
aI26
aI159
aI35
aI33
aI169
aI279
aI198
aI112
aI322
aI43
aI303
aI319
aI480
aI368
aI378
aI454
aI484
aI211
aI407
aI59
aI390
aI188
aI73
aI216
aI141
aI85
aI329
aI409
aI315
asI9
(lp10
I24
aI422
aI106
aI41
aI461
aI161
aI456
aI370
aI299
aI310
aI171
aI85
aI421
aI357
aI368
aI316
aI341
aI30
aI211
aI374
aI449
aI183
aI343
aI481
aI138
aI382
aI319
aI117
aI289
aI74
aI443
aI268
aI484
aI390
aI158
aI401
aI495
aI239
aI329
aI203
aI265
aI50
aI45
aI192
aI75
aI441
aI323
aI274
aI392
aI467
asI10
(lp11
I8
aI68
aI257
aI466
aI104
aI216
aI341
aI297
aI298
aI315
aI122
aI274
aI218
aI405
aI346
aI148
aI106
aI51
aI435
aI173
aI37
aI441
aI420
aI409
aI75
aI15
aI142
aI366
aI19
aI115
aI337
aI324
aI64
aI412
aI425
aI428
aI270
aI235
aI359
aI13
aI461
aI88
aI109
aI159
aI497
aI93
aI190
aI317
aI12
aI488
asI11
(lp12
I420
aI106
aI186
aI158
aI97
aI483
aI490
aI396
aI302
aI182
aI58
aI194
aI23
aI449
aI407
aI79
aI1
aI332
aI390
aI203
aI163
aI299
aI247
aI348
aI141
aI378
aI172
aI401
aI311
aI464
aI402
aI144
aI21
aI339
aI128
aI444
aI75
aI137
aI439
aI392
aI356
aI35
aI222
aI48
aI389
aI406
aI134
aI9
aI385
aI63
asI12
(lp13
I361
aI209
aI150
aI341
aI487
aI413
aI490
aI114
aI259
aI466
aI176
aI225
aI461
aI391
aI432
aI470
aI81
aI431
aI303
aI18
aI245
aI84
aI293
aI258
aI356
aI443
aI11
aI416
aI384
aI350
aI28
aI283
aI180
aI121
aI188
aI271
aI279
aI284
aI35
aI130
aI179
aI57
aI5
aI215
aI360
aI74
aI305
aI104
aI141
aI160
asI13
(lp14
I409
aI305
aI20
aI160
aI458
aI28
aI392
aI431
aI183
aI177
aI31
aI135
aI102
aI115
aI22
aI331
aI364
aI72
aI265
aI319
aI132
aI264
aI30
aI444
aI433
aI356
aI86
aI367
aI315
aI126
aI352
aI7
aI376
aI105
aI438
aI172
aI256
aI385
aI133
aI90
aI8
aI245
aI368
aI202
aI457
aI228
aI466
aI45
aI1
aI279
asI14
(lp15
I156
aI135
aI417
aI480
aI250
aI392
aI195
aI357
aI79
aI328
aI443
aI95
aI125
aI307
aI209
aI20
aI136
aI241
aI8
aI350
aI169
aI368
aI363
aI157
aI7
aI272
aI107
aI446
aI11
aI421
aI227
aI80
aI53
aI467
aI17
aI281
aI373
aI23
aI472
aI2
aI434
aI337
aI39
aI238
aI265
aI288
aI473
aI131
aI166
aI387
asI15
(lp16
I142
aI270
aI234
aI2
aI154
aI186
aI418
aI288
aI226
aI96
aI491
aI307
aI170
aI100
aI291
aI61
aI333
aI313
aI253
aI340
aI442
aI293
aI492
aI107
aI413
aI480
aI74
aI424
aI451
aI357
aI77
aI489
aI268
aI362
aI3
aI94
aI146
aI75
aI33
aI141
aI250
aI429
aI358
aI337
aI283
aI14
aI399
aI329
aI85
aI427
asI16
(lp17
I72
aI446
aI369
aI295
aI216
aI292
aI215
aI289
aI383
aI210
aI448
aI481
aI98
aI202
aI494
aI101
aI14
aI253
aI71
aI325
aI260
aI437
aI459
aI1
aI403
aI391
aI328
aI371
aI373
aI242
aI212
aI285
aI29
aI404
aI17
aI306
aI224
aI421
aI73
aI62
aI35
aI444
aI119
aI221
aI477
aI64
aI317
aI261
aI105
aI263
asI17
(lp18
I143
aI496
aI261
aI420
aI153
aI410
aI97
aI25
aI307
aI445
aI46
aI196
aI391
aI390
aI249
aI157
aI317
aI459
aI376
aI482
aI146
aI280
aI314
aI484
aI368
aI442
aI360
aI136
aI47
aI38
aI384
aI175
aI441
aI163
aI470
aI472
aI70
aI268
aI100
aI319
aI112
aI450
aI449
aI36
aI215
aI88
aI323
aI162
aI302
aI476
asI18
(lp19
I25
aI438
aI276
aI165
aI317
aI147
aI299
aI364
aI134
aI179
aI102
aI143
aI190
aI435
aI172
aI494
aI348
aI268
aI106
aI452
aI208
aI144
aI99
aI450
aI407
aI83
aI81
aI389
aI72
aI252
aI31
aI2
aI328
aI19
aI481
aI475
aI231
aI390
aI358
aI57
aI486
aI329
aI42
aI315
aI350
aI85
aI376
aI194
aI232
aI235
asI19
(lp20
I421
aI431
aI338
aI287
aI245
aI212
aI141
aI262
aI313
aI265
aI192
aI76
aI158
aI15
aI386
aI126
aI374
aI204
aI495
aI409
aI344
aI102
aI104
aI246
aI209
aI448
aI443
aI55
aI371
aI349
aI135
aI494
aI227
aI218
aI478
aI282
aI461
aI493
aI293
aI150
aI328
aI196
aI401
aI58
aI221
aI174
aI471
aI257
aI451
aI271
asI20
(lp21
I59
aI181
aI454
aI387
aI75
aI159
aI439
aI11
aI343
aI76
aI71
aI297
aI149
aI222
aI37
aI105
aI150
aI51
aI395
aI480
aI151
aI132
aI229
aI406
aI347
aI392
aI270
aI14
aI234
aI318
aI15
aI27
aI384
aI101
aI231
aI114
aI330
aI212
aI73
aI476
aI377
aI41
aI156
aI107
aI294
aI299
aI331
aI357
aI72
aI98
asI21
(lp22
I231
aI282
aI6
aI102
aI137
aI278
aI347
aI238
aI455
aI255
aI208
aI202
aI159
aI483
aI64
aI475
aI133
aI256
aI198
aI103
aI211
aI242
aI151
aI489
aI445
aI22
aI89
aI52
aI263
aI190
aI433
aI110
aI474
aI101
aI222
aI425
aI186
aI187
aI1
aI118
aI10
aI440
aI469
aI62
aI386
aI85
aI254
aI274
aI168
aI210
asI22
(lp23
I145
aI171
aI292
aI14
aI426
aI494
aI4
aI257
aI406
aI372
aI333
aI79
aI434
aI362
aI418
aI267
aI424
aI416
aI96
aI28
aI295
aI293
aI376
aI449
aI456
aI320
aI441
aI10
aI60
aI105
aI237
aI147
aI348
aI322
aI84
aI478
aI474
aI254
aI420
aI385
aI283
aI47
aI452
aI238
aI365
aI120
aI8
aI209
aI16
aI488
asI23
(lp24
I261
aI316
aI184
aI421
aI263
aI93
aI298
aI480
aI324
aI254
aI52
aI9
aI375
aI426
aI120
aI349
aI293
aI10
aI66
aI85
aI319
aI78
aI216
aI33
aI185
aI230
aI135
aI194
aI190
aI48
aI434
aI96
aI334
aI4
aI246
aI398
aI65
aI315
aI67
aI17
aI19
aI95
aI137
aI89
aI346
aI214
aI489
aI21
aI83
aI124
asI24
(lp25
I350
aI497
aI466
aI386
aI67
aI128
aI86
aI188
aI153
aI95
aI324
aI192
aI22
aI205
aI292
aI258
aI438
aI349
aI396
aI367
aI499
aI373
aI170
aI493
aI123
aI437
aI415
aI266
aI218
aI451
aI249
aI98
aI385
aI64
aI290
aI338
aI460
aI60
aI163
aI402
aI234
aI353
aI83
aI275
aI204
aI45
aI175
aI162
aI260
aI416
asI25
(lp26
I292
aI6
aI104
aI257
aI333
aI339
aI446
aI264
aI114
aI355
aI182
aI252
aI382
aI150
aI71
aI463
aI235
aI103
aI37
aI191
aI352
aI93
aI466
aI116
aI216
aI246
aI123
aI462
aI495
aI353
aI61
aI159
aI334
aI79
aI78
aI109
aI196
aI247
aI225
aI90
aI359
aI303
aI223
aI400
aI139
aI295
aI476
aI442
aI217
aI141
asI26
(lp27
I303
aI220
aI257
aI39
aI217
aI254
aI118
aI51
aI436
aI265
aI271
aI400
aI296
aI1
aI424
aI101
aI16
aI72
aI176
aI87
aI70
aI435
aI226
aI237
aI463
aI264
aI73
aI410
aI300
aI12
aI401
aI277
aI291
aI55
aI270
aI122
aI168
aI3
aI385
aI369
aI79
aI108
aI46
aI109
aI467
aI495
aI301
aI190
aI466
aI89
asI27
(lp28
I117
aI238
aI361
aI24
aI493
aI293
aI339
aI50
aI457
aI263
aI345
aI446
aI428
aI206
aI123
aI226
aI68
aI78
aI28
aI303
aI321
aI32
aI253
aI256
aI147
aI380
aI127
aI268
aI396
aI53
aI463
aI404
aI377
aI313
aI381
aI444
aI475
aI207
aI34
aI250
aI430
aI386
aI484
aI31
aI7
aI354
aI257
aI471
aI16
aI139
asI28
(lp29
I74
aI433
aI256
aI35
aI229
aI184
aI479
aI27
aI181
aI21
aI406
aI425
aI131
aI401
aI218
aI295
aI186
aI361
aI14
aI478
aI339
aI377
aI358
aI481
aI65
aI64
aI1
aI77
aI297
aI497
aI466
aI37
aI137
aI135
aI161
aI102
aI165
aI57
aI264
aI387
aI471
aI438
aI476
aI404
aI487
aI156
aI324
aI157
aI420
aI118
asI29
(lp30
I241
aI22
aI208
aI167
aI401
aI287
aI253
aI298
aI283
aI496
aI233
aI499
aI85
aI459
aI152
aI51
aI129
aI106
aI34
aI255
aI234
aI249
aI25
aI2
aI452
aI269
aI213
aI464
aI404
aI214
aI454
aI140
aI47
aI355
aI20
aI52
aI338
aI68
aI456
aI334
aI472
aI432
aI127
aI141
aI466
aI237
aI372
aI460
aI61
aI180
asI30
(lp31
I217
aI184
aI173
aI51
aI393
aI461
aI231
aI488
aI99
aI204
aI288
aI410
aI296
aI135
aI91
aI125
aI98
aI43
aI172
aI398
aI345
aI352
aI69
aI374
aI121
aI60
aI279
aI253
aI67
aI413
aI143
aI469
aI198
aI239
aI292
aI244
aI215
aI142
aI317
aI169
aI437
aI230
aI212
aI409
aI446
aI290
aI275
aI283
aI354
aI268
asI31
(lp32
I106
aI313
aI327
aI113
aI433
aI347
aI11
aI124
aI72
aI447
aI283
aI469
aI44
aI372
aI190
aI279
aI468
aI18
aI110
aI320
aI493
aI340
aI245
aI3
aI344
aI235
aI28
aI464
aI232
aI8
aI348
aI375
aI484
aI185
aI101
aI122
aI381
aI212
aI379
aI181
aI267
aI419
aI7
aI67
aI91
aI298
aI358
aI171
aI294
aI37
asI32
(lp33
I463
aI476
aI204
aI45
aI364
aI346
aI38
aI150
aI9
aI449
aI492
aI294
aI180
aI254
aI178
aI35
aI487
aI252
aI308
aI404
aI496
aI267
aI332
aI72
aI247
aI7
aI110
aI19
aI34
aI278
aI345
aI205
aI447
aI83
aI211
aI373
aI221
aI270
aI435
aI281
aI26
aI259
aI66
aI153
aI166
aI115
aI431
aI193
aI355
aI154
asI33
(lp34
I248
aI378
aI137
aI345
aI75
aI4
aI361
aI150
aI272
aI234
aI107
aI253
aI381
aI471
aI52
aI437
aI321
aI129
aI449
aI398
aI482
aI133
aI498
aI288
aI93
aI228
aI236
aI97
aI450
aI396
aI413
aI495
aI85
aI339
aI438
aI380
aI327
aI311
aI38
aI160
aI210
aI50
aI423
aI81
aI338
aI227
aI117
aI95
aI492
aI276
asI34
(lp35
I251
aI129
aI302
aI241
aI371
aI116
aI152
aI214
aI72
aI410
aI426
aI422
aI450
aI472
aI485
aI436
aI44
aI379
aI148
aI320
aI105
aI271
aI165
aI179
aI283
aI437
aI452
aI113
aI434
aI103
aI90
aI352
aI483
aI308
aI376
aI354
aI31
aI292
aI336
aI181
aI218
aI253
aI394
aI448
aI430
aI280
aI217
aI397
aI163
aI80
asI35
(lp36
I46
aI335
aI63
aI110
aI33
aI16
aI87
aI474
aI320
aI497
aI201
aI274
aI39
aI448
aI375
aI433
aI365
aI6
aI245
aI458
aI379
aI395
aI123
aI208
aI128
aI80
aI252
aI126
aI54
aI45
aI74
aI143
aI369
aI96
aI145
aI467
aI11
aI142
aI129
aI325
aI26
aI127
aI447
aI470
aI317
aI356
aI90
aI290
aI217
aI316
asI36
(lp37
I387
aI121
aI256
aI173
aI416
aI372
aI70
aI13
aI11
aI105
aI88
aI405
aI337
aI21
aI113
aI156
aI420
aI460
aI118
aI84
aI449
aI408
aI492
aI423
aI437
aI240
aI258
aI300
aI382
aI99
aI178
aI298
aI472
aI65
aI4
aI162
aI149
aI64
aI383
aI347
aI126
aI282
aI31
aI339
aI154
aI125
aI214
aI208
aI400
aI331
asI37
(lp38
I422
aI167
aI252
aI223
aI82
aI159
aI329
aI243
aI477
aI97
aI492
aI458
aI199
aI63
aI142
aI356
aI301
aI328
aI106
aI32
aI166
aI365
aI453
aI434
aI456
aI197
aI242
aI499
aI396
aI276
aI278
aI436
aI74
aI254
aI309
aI293
aI286
aI127
aI139
aI325
aI91
aI274
aI34
aI205
aI272
aI433
aI181
aI146
aI304
aI495
asI38
(lp39
I261
aI470
aI264
aI366
aI188
aI423
aI245
aI464
aI303
aI389
aI192
aI195
aI399
aI161
aI431
aI493
aI178
aI217
aI487
aI292
aI323
aI111
aI449
aI408
aI202
aI463
aI495
aI193
aI210
aI410
aI34
aI106
aI66
aI101
aI456
aI99
aI403
aI272
aI225
aI35
aI452
aI48
aI484
aI26
aI122
aI457
aI364
aI236
aI39
aI427
asI39
(lp40
I286
aI31
aI112
aI455
aI96
aI43
aI474
aI431
aI483
aI205
aI131
aI215
aI413
aI264
aI176
aI30
aI91
aI296
aI444
aI320
aI466
aI7
aI52
aI335
aI193
aI325
aI203
aI453
aI291
aI425
aI136
aI190
aI479
aI330
aI189
aI100
aI450
aI266
aI293
aI412
aI234
aI185
aI251
aI436
aI442
aI98
aI82
aI226
aI298
aI41
asI40
(lp41
I295
aI307
aI208
aI8
aI57
aI369
aI174
aI499
aI473
aI372
aI86
aI287
aI322
aI26
aI94
aI195
aI448
aI20
aI165
aI30
aI455
aI306
aI424
aI211
aI4
aI45
aI251
aI447
aI114
aI104
aI122
aI5
aI77
aI471
aI151
aI41
aI366
aI147
aI368
aI394
aI359
aI342
aI432
aI399
aI80
aI358
aI88
aI333
aI477
aI146
asI41
(lp42
I353
aI292
aI208
aI7
aI430
aI182
aI441
aI128
aI371
aI352
aI6
aI63
aI197
aI392
aI145
aI413
aI99
aI174
aI154
aI238
aI19
aI449
aI168
aI216
aI454
aI66
aI471
aI140
aI448
aI420
aI188
aI481
aI356
aI329
aI129
aI438
aI422
aI380
aI321
aI275
aI304
aI492
aI130
aI210
aI338
aI246
aI42
aI490
aI114
aI9
asI42
(lp43
I481
aI451
aI244
aI468
aI152
aI372
aI128
aI198
aI299
aI162
aI365
aI60
aI55
aI257
aI56
aI381
aI29
aI173
aI171
aI384
aI170
aI402
aI458
aI397
aI491
aI111
aI5
aI109
aI463
aI492
aI174
aI100
aI431
aI420
aI286
aI410
aI187
aI259
aI117
aI419
aI405
aI469
aI281
aI278
aI158
aI434
aI172
aI135
aI232
aI85
asI43
(lp44
I496
aI310
aI435
aI258
aI209
aI58
aI352
aI64
aI251
aI298
aI146
aI51
aI306
aI373
aI213
aI434
aI407
aI89
aI472
aI220
aI388
aI271
aI465
aI197
aI337
aI215
aI203
aI179
aI34
aI318
aI498
aI28
aI38
aI134
aI110
aI116
aI283
aI490
aI396
aI281
aI285
aI103
aI400
aI158
aI172
aI468
aI84
aI113
aI453
aI375
asI44
(lp45
I446
aI34
aI301
aI157
aI361
aI83
aI275
aI144
aI75
aI450
aI489
aI467
aI451
aI447
aI244
aI31
aI256
aI486
aI123
aI114
aI181
aI368
aI84
aI350
aI431
aI403
aI138
aI122
aI307
aI230
aI39
aI162
aI189
aI24
aI490
aI413
aI1
aI387
aI371
aI487
aI442
aI255
aI303
aI68
aI425
aI338
aI472
aI58
aI251
aI87
asI45
(lp46
I314
aI386
aI250
aI344
aI25
aI392
aI319
aI31
aI472
aI212
aI132
aI67
aI402
aI108
aI167
aI9
aI161
aI80
aI151
aI7
aI228
aI10
aI214
aI84
aI269
aI208
aI310
aI484
aI415
aI427
aI190
aI325
aI360
aI444
aI432
aI254
aI442
aI186
aI421
aI143
aI165
aI474
aI133
aI238
aI157
aI309
aI202
aI30
aI406
aI384
asI46
(lp47
I242
aI36
aI199
aI472
aI447
aI232
aI326
aI139
aI21
aI327
aI469
aI40
aI260
aI279
aI433
aI458
aI387
aI10
aI41
aI75
aI138
aI58
aI198
aI226
aI353
aI94
aI332
aI97
aI304
aI483
aI108
aI113
aI324
aI100
aI381
aI397
aI170
aI45
aI159
aI277
aI398
aI68
aI347
aI269
aI47
aI126
aI291
aI497
aI214
aI482
asI47
(lp48
I244
aI469
aI204
aI120
aI251
aI495
aI29
aI4
aI437
aI21
aI235
aI231
aI105
aI163
aI351
aI378
aI121
aI175
aI100
aI57
aI383
aI39
aI393
aI150
aI446
aI436
aI325
aI205
aI77
aI333
aI112
aI71
aI428
aI329
aI397
aI444
aI250
aI330
aI481
aI336
aI439
aI261
aI290
aI152
aI328
aI300
aI441
aI199
aI189
aI285
asI48
(lp49
I192
aI231
aI222
aI35
aI3
aI366
aI423
aI17
aI405
aI218
aI409
aI458
aI75
aI89
aI472
aI174
aI93
aI361
aI445
aI345
aI426
aI239
aI433
aI253
aI64
aI482
aI277
aI403
aI448
aI158
aI489
aI211
aI450
aI177
aI387
aI464
aI475
aI202
aI477
aI283
aI479
aI318
aI378
aI376
aI380
aI214
aI125
aI326
aI191
aI12
asI49
(lp50
I379
aI453
aI185
aI232
aI303
aI126
aI131
aI7
aI199
aI292
aI402
aI484
aI353
aI276
aI47
aI158
aI418
aI172
aI311
aI295
aI169
aI345
aI486
aI102
aI12
aI179
aI248
aI24
aI87
aI18
aI443
aI376
aI391
aI370
aI309
aI385
aI373
aI268
aI366
aI20
aI98
aI349
aI193
aI362
aI164
aI54
aI447
aI439
aI361
aI457
asI50
(lp51
I495
aI73
aI22
aI385
aI198
aI184
aI140
aI369
aI497
aI241
aI194
aI263
aI9
aI18
aI52
aI362
aI468
aI486
aI62
aI208
aI459
aI172
aI277
aI370
aI346
aI481
aI432
aI398
aI43
aI379
aI109
aI310
aI61
aI436
aI483
aI258
aI265
aI240
aI410
aI242
aI405
aI428
aI342
aI394
aI470
aI304
aI150
aI471
aI327
aI101
asI51
(lp52
I360
aI62
aI462
aI278
aI499
aI496
aI169
aI427
aI328
aI252
aI299
aI452
aI189
aI351
aI336
aI287
aI378
aI124
aI157
aI490
aI372
aI482
aI237
aI48
aI382
aI362
aI337
aI175
aI241
aI215
aI282
aI159
aI57
aI353
aI306
aI345
aI468
aI334
aI141
aI211
aI433
aI180
aI450
aI403
aI26
aI164
aI199
aI320
aI85
aI471
asI52
(lp53
I69
aI11
aI219
aI385
aI171
aI458
aI59
aI348
aI317
aI66
aI472
aI128
aI51
aI100
aI39
aI489
aI96
aI129
aI113
aI469
aI63
aI130
aI250
aI372
aI293
aI172
aI315
aI195
aI402
aI61
aI175
aI398
aI371
aI17
aI289
aI319
aI380
aI18
aI258
aI369
aI459
aI305
aI208
aI408
aI246
aI255
aI177
aI376
aI456
aI373
asI53
(lp54
I193
aI185
aI233
aI476
aI240
aI415
aI267
aI210
aI490
aI354
aI443
aI362
aI55
aI466
aI11
aI176
aI223
aI27
aI238
aI336
aI3
aI151
aI30
aI274
aI224
aI353
aI4
aI156
aI464
aI140
aI256
aI190
aI375
aI257
aI311
aI92
aI360
aI445
aI209
aI38
aI384
aI96
aI396
aI219
aI65
aI382
aI167
aI312
aI422
aI157
asI54
(lp55
I465
aI409
aI94
aI135
aI73
aI76
aI456
aI188
aI310
aI203
aI332
aI29
aI67
aI33
aI406
aI496
aI93
aI121
aI119
aI27
aI89
aI180
aI391
aI307
aI390
aI48
aI155
aI111
aI419
aI283
aI387
aI482
aI322
aI236
aI225
aI483
aI395
aI290
aI386
aI175
aI109
aI7
aI404
aI66
aI200
aI136
aI351
aI123
aI498
aI189
asI55
(lp56
I388
aI240
aI321
aI63
aI476
aI329
aI48
aI228
aI432
aI95
aI62
aI495
aI328
aI196
aI421
aI474
aI270
aI292
aI220
aI182
aI487
aI496
aI319
aI464
aI289
aI86
aI28
aI412
aI149
aI343
aI65
aI276
aI137
aI31
aI494
aI223
aI9
aI480
aI296
aI176
aI175
aI145
aI338
aI87
aI12
aI103
aI458
aI359
aI444
aI286
asI56
(lp57
I117
aI231
aI474
aI49
aI339
aI262
aI398
aI114
aI251
aI407
aI81
aI336
aI356
aI108
aI143
aI95
aI214
aI479
aI403
aI260
aI468
aI152
aI248
aI320
aI287
aI286
aI294
aI19
aI213
aI89
aI96
aI404
aI373
aI391
aI2
aI185
aI272
aI355
aI247
aI202
aI469
aI319
aI241
aI266
aI112
aI70
aI347
aI154
aI107
aI46
asI57
(lp58
I163
aI387
aI124
aI257
aI481
aI134
aI363
aI417
aI471
aI209
aI479
aI270
aI315
aI174
aI156
aI180
aI361
aI360
aI487
aI334
aI6
aI490
aI320
aI135
aI153
aI380
aI277
aI155
aI185
aI136
aI346
aI420
aI154
aI473
aI41
aI396
aI89
aI285
aI475
aI230
aI341
aI49
aI103
aI278
aI158
aI461
aI291
aI423
aI105
aI177
asI58
(lp59
I179
aI218
aI451
aI368
aI300
aI41
aI298
aI363
aI43
aI256
aI260
aI231
aI125
aI77
aI296
aI42
aI400
aI395
aI397
aI457
aI339
aI38
aI187
aI205
aI174
aI411
aI266
aI361
aI162
aI284
aI5
aI78
aI453
aI15
aI267
aI390
aI212
aI155
aI146
aI83
aI64
aI313
aI104
aI409
aI22
aI82
aI10
aI463
aI396
aI454
asI59
(lp60
I431
aI348
aI188
aI253
aI126
aI105
aI54
aI499
aI426
aI65
aI276
aI268
aI84
aI17
aI148
aI302
aI396
aI303
aI459
aI200
aI381
aI283
aI115
aI18
aI186
aI402
aI216
aI284
aI68
aI496
aI349
aI457
aI66
aI259
aI277
aI56
aI139
aI266
aI9
aI8
aI203
aI328
aI258
aI121
aI323
aI443
aI21
aI442
aI293
aI271
asI60
(lp61
I500
aI371
aI416
aI140
aI256
aI497
aI285
aI15
aI191
aI153
aI212
aI379
aI396
aI281
aI401
aI185
aI456
aI223
aI74
aI451
aI400
aI362
aI493
aI145
aI56
aI194
aI113
aI38
aI3
aI332
aI295
aI87
aI139
aI187
aI409
aI179
aI350
aI495
aI282
aI199
aI248
aI197
aI9
aI481
aI397
aI407
aI412
aI421
aI141
aI370
asI61
(lp62
I250
aI289
aI330
aI79
aI50
aI457
aI180
aI241
aI21
aI34
aI294
aI31
aI414
aI403
aI83
aI223
aI160
aI47
aI209
aI40
aI495
aI266
aI98
aI290
aI43
aI476
aI227
aI358
aI178
aI399
aI302
aI281
aI212
aI208
aI275
aI173
aI332
aI26
aI9
aI460
aI144
aI111
aI119
aI276
aI176
aI407
aI243
aI235
aI129
aI53
asI62
(lp63
I395
aI478
aI283
aI55
aI106
aI263
aI331
aI26
aI49
aI441
aI370
aI268
aI298
aI425
aI430
aI170
aI366
aI113
aI79
aI12
aI482
aI112
aI306
aI255
aI358
aI476
aI265
aI111
aI10
aI139
aI70
aI41
aI341
aI144
aI179
aI275
aI334
aI169
aI286
aI116
aI259
aI72
aI484
aI90
aI493
aI247
aI487
aI28
aI289
aI327
asI63
(lp64
I104
aI29
aI240
aI328
aI81
aI226
aI323
aI349
aI260
aI387
aI265
aI157
aI96
aI392
aI85
aI33
aI279
aI18
aI418
aI255
aI183
aI84
aI49
aI264
aI152
aI310
aI71
aI175
aI164
aI362
aI57
aI443
aI331
aI31
aI25
aI218
aI116
aI154
aI231
aI129
aI166
aI124
aI222
aI78
aI143
aI126
aI244
aI493
aI52
aI314
asI64
(lp65
I120
aI494
aI354
aI117
aI135
aI430
aI352
aI40
aI151
aI307
aI370
aI350
aI129
aI25
aI93
aI318
aI380
aI271
aI41
aI44
aI131
aI112
aI495
aI266
aI226
aI477
aI158
aI67
aI361
aI116
aI333
aI334
aI78
aI290
aI228
aI76
aI150
aI212
aI14
aI466
aI343
aI422
aI297
aI154
aI323
aI349
aI63
aI222
aI155
aI55
asI65
(lp66
I411
aI329
aI382
aI369
aI447
aI119
aI86
aI16
aI220
aI8
aI467
aI317
aI323
aI375
aI139
aI342
aI325
aI389
aI488
aI179
aI209
aI463
aI77
aI436
aI405
aI435
aI422
aI190
aI253
aI229
aI308
aI427
aI348
aI324
aI468
aI416
aI141
aI146
aI475
aI332
aI140
aI274
aI55
aI158
aI404
aI4
aI372
aI466
aI271
aI452
asI66
(lp67
I85
aI139
aI441
aI157
aI176
aI212
aI164
aI484
aI419
aI169
aI147
aI160
aI384
aI91
aI105
aI327
aI24
aI332
aI283
aI298
aI282
aI446
aI482
aI192
aI394
aI129
aI222
aI64
aI126
aI326
aI119
aI90
aI199
aI158
aI156
aI110
aI288
aI229
aI284
aI78
aI177
aI340
aI128
aI206
aI492
aI228
aI302
aI204
aI317
aI396
asI67
(lp68
I20
aI309
aI95
aI97
aI354
aI254
aI319
aI328
aI357
aI260
aI329
aI160
aI265
aI351
aI26
aI133
aI375
aI264
aI315
aI82
aI31
aI208
aI492
aI356
aI209
aI96
aI177
aI70
aI39
aI394
aI15
aI437
aI324
aI215
aI365
aI348
aI337
aI238
aI101
aI258
aI108
aI243
aI392
aI470
aI17
aI175
aI57
aI441
aI163
aI184
asI68
(lp69
I474
aI369
aI257
aI130
aI20
aI162
aI222
aI72
aI44
aI60
aI439
aI289
aI344
aI321
aI273
aI46
aI186
aI65
aI354
aI136
aI384
aI96
aI207
aI113
aI269
aI319
aI71
aI435
aI21
aI490
aI218
aI475
aI292
aI102
aI129
aI134
aI97
aI205
aI468
aI122
aI116
aI9
aI367
aI486
aI328
aI416
aI421
aI171
aI264
aI311
asI69
(lp70
I92
aI109
aI5
aI243
aI428
aI172
aI229
aI422
aI106
aI50
aI6
aI120
aI357
aI312
aI216
aI13
aI258
aI291
aI401
aI49
aI408
aI2
aI435
aI252
aI329
aI281
aI31
aI148
aI459
aI247
aI63
aI481
aI144
aI189
aI405
aI213
aI107
aI450
aI419
aI373
aI384
aI439
aI310
aI438
aI124
aI360
aI343
aI272
aI39
aI194
asI70
(lp71
I294
aI331
aI131
aI439
aI21
aI128
aI464
aI46
aI376
aI143
aI182
aI183
aI211
aI214
aI453
aI498
aI38
aI403
aI493
aI269
aI409
aI240
aI312
aI282
aI253
aI325
aI291
aI475
aI227
aI480
aI389
aI216
aI351
aI290
aI73
aI335
aI157
aI231
aI28
aI12
aI420
aI260
aI483
aI8
aI327
aI449
aI201
aI370
aI402
aI462
asI71
(lp72
I59
aI325
aI47
aI165
aI476
aI146
aI355
aI188
aI422
aI69
aI135
aI119
aI200
aI199
aI162
aI72
aI181
aI251
aI163
aI336
aI76
aI359
aI211
aI407
aI263
aI183
aI46
aI301
aI250
aI178
aI36
aI126
aI314
aI441
aI455
aI420
aI458
aI500
aI4
aI6
aI286
aI272
aI319
aI144
aI446
aI431
aI498
aI227
aI89
aI236
asI72
(lp73
I220
aI443
aI378
aI75
aI118
aI370
aI252
aI128
aI225
aI88
aI40
aI349
aI186
aI346
aI87
aI76
aI402
aI44
aI135
aI204
aI103
aI159
aI16
aI124
aI460
aI405
aI276
aI499
aI291
aI240
aI376
aI421
aI255
aI297
aI330
aI6
aI129
aI38
aI15
aI464
aI146
aI79
aI456
aI209
aI496
aI112
aI466
aI47
aI320
aI179
asI73
(lp74
I46
aI496
aI478
aI463
aI70
aI294
aI395
aI332
aI356
aI322
aI334
aI107
aI275
aI476
aI481
aI44
aI319
aI397
aI394
aI220
aI101
aI316
aI471
aI450
aI378
aI420
aI259
aI64
aI198
aI151
aI249
aI393
aI10
aI363
aI446
aI111
aI408
aI328
aI336
aI278
aI182
aI500
aI216
aI125
aI303
aI368
aI135
aI30
aI473
aI416
asI74
(lp75
I379
aI420
aI347
aI298
aI265
aI465
aI127
aI133
aI4
aI238
aI162
aI46
aI474
aI125
aI417
aI330
aI418
aI395
aI370
aI355
aI496
aI126
aI72
aI11
aI134
aI36
aI252
aI160
aI51
aI485
aI148
aI378
aI152
aI280
aI108
aI34
aI80
aI189
aI399
aI137
aI344
aI216
aI146
aI500
aI136
aI17
aI166
aI91
aI227
aI471
asI75
(lp76
I377
aI152
aI198
aI405
aI282
aI49
aI281
aI439
aI250
aI422
aI448
aI441
aI339
aI472
aI323
aI310
aI352
aI294
aI4
aI420
aI166
aI421
aI197
aI97
aI55
aI460
aI249
aI28
aI206
aI99
aI470
aI356
aI124
aI300
aI177
aI456
aI165
aI288
aI119
aI363
aI291
aI245
aI259
aI21
aI23
aI396
aI397
aI360
aI228
aI65
asI76
(lp77
I356
aI83
aI369
aI240
aI140
aI143
aI234
aI199
aI24
aI426
aI60
aI80
aI105
aI391
aI328
aI185
aI457
aI120
aI423
aI416
aI179
aI235
aI182
aI160
aI209
aI398
aI452
aI465
aI208
aI229
aI49
aI48
aI262
aI458
aI412
aI486
aI345
aI51
aI367
aI11
aI158
aI312
aI247
aI102
aI373
aI385
aI405
aI8
aI110
aI314
asI77
(lp78
I443
aI174
aI135
aI194
aI390
aI300
aI92
aI129
aI354
aI429
aI52
aI192
aI166
aI173
aI452
aI337
aI374
aI340
aI157
aI80
aI465
aI71
aI353
aI380
aI268
aI19
aI471
aI111
aI498
aI287
aI339
aI246
aI230
aI379
aI305
aI25
aI473
aI454
aI388
aI122
aI89
aI128
aI426
aI416
aI150
aI223
aI206
aI457
aI462
aI385
asI78
(lp79
I390
aI348
aI345
aI445
aI221
aI38
aI488
aI210
aI336
aI32
aI2
aI299
aI400
aI220
aI460
aI293
aI96
aI18
aI105
aI37
aI313
aI218
aI145
aI476
aI87
aI191
aI59
aI141
aI393
aI289
aI419
aI19
aI493
aI65
aI329
aI407
aI36
aI357
aI12
aI376
aI437
aI192
aI52
aI253
aI388
aI102
aI495
aI23
aI324
aI181
asI79
(lp80
I357
aI186
aI437
aI495
aI241
aI492
aI281
aI225
aI166
aI283
aI177
aI404
aI34
aI347
aI100
aI475
aI170
aI126
aI167
aI265
aI219
aI206
aI145
aI92
aI160
aI412
aI407
aI232
aI313
aI94
aI60
aI273
aI129
aI64
aI199
aI336
aI188
aI201
aI463
aI383
aI394
aI287
aI218
aI182
aI364
aI350
aI216
aI5
aI277
aI143
asI80
(lp81
I379
aI414
aI70
aI144
aI169
aI262
aI24
aI54
aI157
aI189
aI232
aI228
aI273
aI248
aI413
aI361
aI257
aI430
aI241
aI75
aI219
aI135
aI112
aI285
aI71
aI178
aI275
aI340
aI99
aI441
aI364
aI465
aI393
aI214
aI47
aI183
aI297
aI45
aI440
aI43
aI221
aI255
aI375
aI132
aI446
aI53
aI496
aI21
aI322
aI358
asI81
(lp82
I410
aI160
aI1
aI305
aI395
aI110
aI49
aI280
aI288
aI340
aI439
aI152
aI259
aI426
aI216
aI281
aI3
aI489
aI111
aI174
aI86
aI91
aI399
aI319
aI237
aI8
aI132
aI228
aI44
aI195
aI227
aI411
aI66
aI278
aI415
aI164
aI325
aI190
aI181
aI236
aI291
aI59
aI58
aI5
aI71
aI365
aI235
aI93
aI434
aI42
asI82
(lp83
I239
aI404
aI132
aI140
aI439
aI425
aI465
aI235
aI101
aI9
aI314
aI401
aI426
aI387
aI297
aI485
aI324
aI69
aI159
aI141
aI205
aI487
aI186
aI478
aI142
aI495
aI338
aI292
aI143
aI175
aI173
aI491
aI437
aI200
aI420
aI473
aI345
aI366
aI12
aI329
aI204
aI56
aI413
aI104
aI448
aI442
aI368
aI8
aI189
aI453
asI83
(lp84
I153
aI26
aI377
aI434
aI331
aI307
aI339
aI283
aI108
aI39
aI137
aI302
aI353
aI239
aI49
aI299
aI100
aI309
aI362
aI171
aI97
aI211
aI287
aI433
aI92
aI449
aI243
aI317
aI195
aI394
aI382
aI185
aI265
aI79
aI291
aI70
aI400
aI311
aI408
aI68
aI250
aI24
aI431
aI414
aI125
aI466
aI356
aI60
aI474
aI369
asI84
(lp85
I408
aI184
aI499
aI144
aI98
aI367
aI133
aI296
aI121
aI204
aI160
aI461
aI76
aI471
aI109
aI332
aI30
aI234
aI218
aI493
aI376
aI355
aI69
aI454
aI409
aI443
aI356
aI323
aI13
aI11
aI80
aI280
aI42
aI287
aI170
aI222
aI119
aI75
aI79
aI433
aI77
aI360
aI34
aI311
aI53
aI108
aI417
aI262
aI63
aI480
asI85
(lp86
I194
aI288
aI71
aI467
aI191
aI215
aI154
aI390
aI306
aI382
aI376
aI150
aI393
aI279
aI136
aI7
aI311
aI133
aI208
aI255
aI226
aI200
aI23
aI495
aI162
aI315
aI31
aI455
aI52
aI324
aI123
aI3
aI207
aI117
aI445
aI341
aI252
aI40
aI404
aI186
aI264
aI337
aI234
aI174
aI72
aI142
aI454
aI237
aI367
aI69
asI86
(lp87
I324
aI23
aI432
aI363
aI198
aI42
aI12
aI125
aI391
aI51
aI55
aI270
aI145
aI364
aI284
aI445
aI62
aI492
aI392
aI487
aI291
aI138
aI34
aI442
aI356
aI29
aI380
aI4
aI48
aI419
aI375
aI479
aI282
aI460
aI349
aI405
aI11
aI401
aI19
aI116
aI417
aI342
aI129
aI24
aI236
aI466
aI286
aI451
aI332
aI490
asI87
(lp88
I35
aI126
aI180
aI411
aI164
aI354
aI65
aI402
aI382
aI166
aI150
aI212
aI143
aI19
aI468
aI359
aI39
aI162
aI216
aI365
aI394
aI352
aI390
aI242
aI412
aI210
aI377
aI249
aI156
aI176
aI8
aI9
aI186
aI428
aI197
aI11
aI481
aI393
aI144
aI117
aI191
aI434
aI406
aI467
aI376
aI355
aI109
aI111
aI181
aI407
asI88
(lp89
I498
aI219
aI120
aI493
aI435
aI8
aI326
aI239
aI204
aI214
aI357
aI499
aI391
aI295
aI489
aI110
aI262
aI227
aI206
aI11
aI57
aI261
aI271
aI215
aI319
aI333
aI188
aI490
aI314
aI478
aI121
aI61
aI257
aI255
aI368
aI487
aI495
aI413
aI338
aI318
aI438
aI222
aI459
aI124
aI205
aI304
aI15
aI272
aI182
aI68
asI89
(lp90
I265
aI93
aI361
aI278
aI293
aI201
aI445
aI252
aI175
aI373
aI485
aI119
aI309
aI79
aI266
aI222
aI381
aI321
aI338
aI299
aI110
aI473
aI83
aI295
aI230
aI187
aI497
aI447
aI483
aI430
aI123
aI53
aI482
aI148
aI350
aI19
aI286
aI297
aI287
aI25
aI76
aI429
aI154
aI315
aI91
aI320
aI208
aI216
aI159
aI494
asI90
(lp91
I382
aI120
aI178
aI86
aI100
aI365
aI324
aI125
aI353
aI80
aI260
aI322
aI235
aI497
aI46
aI7
aI150
aI405
aI186
aI299
aI166
aI101
aI402
aI57
aI452
aI121
aI129
aI421
aI500
aI468
aI357
aI254
aI52
aI66
aI309
aI316
aI14
aI435
aI6
aI131
aI380
aI352
aI268
aI442
aI289
aI71
aI135
aI49
aI348
aI425
asI91
(lp92
I415
aI199
aI335
aI26
aI480
aI227
aI79
aI437
aI383
aI408
aI478
aI3
aI168
aI172
aI225
aI496
aI146
aI373
aI37
aI449
aI499
aI242
aI10
aI300
aI89
aI442
aI371
aI367
aI148
aI144
aI392
aI432
aI366
aI500
aI106
aI471
aI277
aI297
aI423
aI113
aI463
aI464
aI231
aI99
aI347
aI23
aI416
aI337
aI188
aI165
asI92
(lp93
I374
aI222
aI243
aI119
aI301
aI355
aI107
aI35
aI164
aI127
aI91
aI50
aI369
aI430
aI302
aI261
aI470
aI29
aI55
aI12
aI157
aI42
aI486
aI494
aI376
aI372
aI146
aI412
aI125
aI113
aI187
aI84
aI235
aI203
aI193
aI201
aI340
aI410
aI421
aI425
aI338
aI464
aI8
aI199
aI212
aI484
aI45
aI121
aI177
aI278
asI93
(lp94
I121
aI88
aI137
aI251
aI234
aI268
aI432
aI178
aI77
aI417
aI133
aI397
aI293
aI160
aI20
aI82
aI185
aI456
aI372
aI424
aI105
aI127
aI182
aI259
aI36
aI334
aI425
aI111
aI199
aI2
aI489
aI375
aI405
aI366
aI17
aI83
aI347
aI415
aI144
aI213
aI340
aI469
aI364
aI384
aI87
aI86
aI329
aI494
aI222
aI152
asI94
(lp95
I240
aI354
aI232
aI170
aI349
aI374
aI362
aI257
aI189
aI304
aI375
aI496
aI10
aI403
aI447
aI216
aI477
aI360
aI329
aI103
aI276
aI134
aI319
aI100
aI386
aI24
aI361
aI297
aI121
aI497
aI336
aI400
aI305
aI499
aI190
aI420
aI169
aI82
aI152
aI13
aI293
aI109
aI493
aI473
aI148
aI353
aI200
aI416
aI285
aI371
asI95
(lp96
I152
aI65
aI107
aI455
aI39
aI12
aI239
aI446
aI357
aI271
aI295
aI457
aI160
aI150
aI165
aI92
aI46
aI229
aI53
aI176
aI428
aI292
aI230
aI50
aI473
aI212
aI298
aI172
aI286
aI141
aI28
aI310
aI369
aI324
aI323
aI213
aI467
aI348
aI390
aI154
aI208
aI460
aI269
aI128
aI483
aI211
aI216
aI73
aI88
aI325
asI96
(lp97
I349
aI317
aI65
aI178
aI254
aI27
aI165
aI26
aI286
aI490
aI478
aI115
aI60
aI211
aI417
aI183
aI398
aI273
aI495
aI416
aI277
aI432
aI332
aI53
aI316
aI343
aI89
aI365
aI145
aI186
aI79
aI197
aI461
aI314
aI83
aI48
aI359
aI236
aI310
aI71
aI304
aI195
aI408
aI422
aI313
aI489
aI111
aI10
aI100
aI177
asI97
(lp98
I304
aI46
aI375
aI40
aI216
aI108
aI444
aI357
aI231
aI41
aI481
aI158
aI230
aI116
aI201
aI76
aI61
aI380
aI465
aI115
aI136
aI114
aI36
aI409
aI134
aI156
aI305
aI117
aI192
aI320
aI257
aI393
aI239
aI484
aI74
aI312
aI73
aI182
aI400
aI227
aI147
aI94
aI47
aI387
aI143
aI336
aI282
aI262
aI349
aI489
asI98
(lp99
I443
aI354
aI72
aI233
aI71
aI289
aI475
aI420
aI111
aI14
aI214
aI47
aI25
aI476
aI372
aI335
aI199
aI457
aI474
aI186
aI156
aI342
aI448
aI55
aI290
aI276
aI444
aI324
aI409
aI32
aI223
aI425
aI88
aI332
aI297
aI284
aI82
aI308
aI260
aI353
aI100
aI54
aI196
aI295
aI122
aI179
aI477
aI65
aI180
aI145
asI99
(lp100
I287
aI242
aI104
aI484
aI114
aI196
aI413
aI478
aI130
aI379
aI85
aI229
aI316
aI303
aI305
aI375
aI232
aI410
aI495
aI300
aI314
aI91
aI2
aI165
aI366
aI161
aI200
aI219
aI350
aI402
aI55
aI176
aI420
aI159
aI472
aI213
aI439
aI373
aI454
aI482
aI204
aI404
aI87
aI62
aI203
aI215
aI223
aI7
aI123
aI386
asI100
(lp101
I482
aI85
aI14
aI324
aI90
aI271
aI393
aI384
aI229
aI440
aI84
aI151
aI144
aI357
aI452
aI22
aI145
aI322
aI425
aI184
aI288
aI187
aI354
aI329
aI38
aI426
aI245
aI42
aI470
aI367
aI261
aI286
aI219
aI154
aI215
aI199
aI223
aI264
aI363
aI377
aI477
aI467
aI364
aI111
aI174
aI396
aI46
aI217
aI453
aI446
asI101
(lp102
I458
aI287
aI173
aI465
aI396
aI211
aI434
aI496
aI335
aI428
aI70
aI438
aI455
aI29
aI415
aI481
aI232
aI272
aI1
aI106
aI499
aI419
aI443
aI241
aI305
aI161
aI228
aI351
aI320
aI207
aI349
aI168
aI81
aI50
aI286
aI432
aI85
aI166
aI164
aI133
aI189
aI259
aI397
aI231
aI429
aI363
aI2
aI375
aI117
aI103
asI102
(lp103
I473
aI313
aI362
aI341
aI280
aI427
aI151
aI377
aI302
aI257
aI203
aI47
aI339
aI109
aI426
aI490
aI465
aI332
aI49
aI61
aI456
aI338
aI97
aI374
aI176
aI452
aI414
aI360
aI98
aI454
aI184
aI162
aI84
aI271
aI497
aI476
aI54
aI174
aI77
aI24
aI440
aI212
aI71
aI486
aI209
aI375
aI65
aI391
aI208
aI386
asI103
(lp104
I290
aI50
aI310
aI292
aI467
aI80
aI456
aI381
aI382
aI332
aI363
aI412
aI104
aI100
aI156
aI204
aI42
aI489
aI40
aI4
aI338
aI202
aI370
aI463
aI410
aI79
aI379
aI328
aI442
aI66
aI94
aI56
aI294
aI45
aI436
aI99
aI98
aI500
aI265
aI74
aI76
aI333
aI37
aI177
aI157
aI181
aI286
aI70
aI229
aI162
asI104
(lp105
I37
aI45
aI380
aI365
aI362
aI434
aI204
aI260
aI438
aI154
aI405
aI88
aI470
aI389
aI307
aI313
aI67
aI87
aI111
aI433
aI330
aI188
aI196
aI144
aI186
aI21
aI256
aI478
aI437
aI80
aI456
aI297
aI492
aI64
aI428
aI384
aI171
aI397
aI301
aI354
aI49
aI218
aI424
aI33
aI57
aI220
aI359
aI55
aI141
aI333
asI105
(lp106
I95
aI490
aI18
aI290
aI70
aI264
aI446
aI243
aI313
aI249
aI141
aI412
aI205
aI467
aI438
aI261
aI441
aI25
aI425
aI257
aI181
aI458
aI221
aI69
aI184
aI459
aI350
aI162
aI472
aI381
aI407
aI300
aI206
aI287
aI123
aI376
aI275
aI222
aI404
aI375
aI5
aI252
aI1
aI283
aI397
aI180
aI325
aI163
aI124
aI269
asI106
(lp107
I89
aI454
aI193
aI346
aI136
aI223
aI261
aI22
aI271
aI64
aI87
aI246
aI401
aI18
aI252
aI123
aI146
aI281
aI8
aI488
aI474
aI340
aI293
aI154
aI290
aI370
aI365
aI47
aI257
aI164
aI437
aI83
aI323
aI9
aI122
aI335
aI392
aI109
aI163
aI463
aI25
aI195
aI95
aI420
aI170
aI155
aI36
aI319
aI68
aI273
asI107
(lp108
I466
aI330
aI201
aI147
aI29
aI404
aI460
aI70
aI196
aI291
aI480
aI132
aI62
aI127
aI33
aI455
aI363
aI154
aI225
aI50
aI24
aI103
aI129
aI185
aI299
aI446
aI149
aI108
aI290
aI493
aI477
aI182
aI380
aI253
aI237
aI188
aI234
aI406
aI136
aI227
aI383
aI211
aI324
aI64
aI453
aI161
aI235
aI135
aI228
aI177
asI108
(lp109
I165
aI344
aI476
aI123
aI352
aI288
aI372
aI438
aI281
aI42
aI417
aI345
aI236
aI294
aI37
aI200
aI67
aI137
aI40
aI275
aI371
aI9
aI400
aI134
aI456
aI368
aI227
aI170
aI59
aI398
aI56
aI246
aI148
aI263
aI212
aI419
aI284
aI161
aI402
aI349
aI480
aI60
aI423
aI105
aI391
aI146
aI262
aI291
aI225
aI51
asI109
(lp110
I70
aI262
aI29
aI446
aI252
aI17
aI469
aI146
aI224
aI332
aI243
aI442
aI463
aI150
aI389
aI484
aI496
aI371
aI289
aI140
aI288
aI44
aI58
aI34
aI305
aI64
aI336
aI268
aI189
aI310
aI340
aI192
aI342
aI385
aI370
aI295
aI22
aI21
aI190
aI434
aI23
aI488
aI69
aI377
aI103
aI145
aI147
aI120
aI464
aI360
asI110
(lp111
I85
aI499
aI119
aI197
aI427
aI491
aI10
aI51
aI195
aI396
aI404
aI109
aI63
aI384
aI381
aI442
aI148
aI286
aI389
aI200
aI227
aI412
aI417
aI380
aI298
aI353
aI493
aI302
aI220
aI345
aI155
aI470
aI414
aI478
aI95
aI158
aI439
aI496
aI294
aI21
aI402
aI162
aI406
aI157
aI97
aI494
aI139
aI214
aI43
aI40
asI111
(lp112
I306
aI186
aI423
aI240
aI256
aI19
aI188
aI229
aI31
aI386
aI135
aI413
aI246
aI319
aI320
aI274
aI305
aI182
aI43
aI373
aI200
aI294
aI495
aI278
aI464
aI233
aI341
aI238
aI44
aI400
aI57
aI326
aI439
aI381
aI71
aI179
aI99
aI483
aI420
aI239
aI260
aI94
aI258
aI54
aI139
aI197
aI393
aI310
aI72
aI176
asI112
(lp113
I429
aI64
aI371
aI53
aI302
aI265
aI421
aI101
aI399
aI281
aI176
aI168
aI30
aI306
aI256
aI34
aI250
aI61
aI65
aI285
aI455
aI31
aI470
aI71
aI447
aI427
aI174
aI271
aI362
aI149
aI269
aI420
aI417
aI328
aI484
aI270
aI260
aI217
aI23
aI405
aI181
aI234
aI29
aI415
aI359
aI209
aI488
aI114
aI115
aI76
asI113
(lp114
I463
aI401
aI119
aI353
aI386
aI242
aI321
aI259
aI358
aI443
aI88
aI87
aI482
aI371
aI233
aI413
aI357
aI483
aI387
aI380
aI416
aI180
aI166
aI249
aI491
aI186
aI132
aI403
aI494
aI352
aI69
aI108
aI236
aI402
aI197
aI4
aI226
aI477
aI145
aI55
aI44
aI116
aI399
aI451
aI149
aI393
aI313
aI390
aI96
aI6
asI114
(lp115
I274
aI106
aI219
aI419
aI402
aI453
aI342
aI32
aI264
aI359
aI198
aI499
aI307
aI123
aI486
aI257
aI250
aI27
aI98
aI129
aI38
aI281
aI221
aI487
aI94
aI134
aI40
aI183
aI214
aI91
aI271
aI418
aI213
aI249
aI394
aI467
aI360
aI434
aI312
aI387
aI41
aI313
aI267
aI431
aI466
aI53
aI174
aI327
aI492
aI480
asI115
(lp116
I347
aI348
aI475
aI363
aI19
aI361
aI158
aI43
aI292
aI42
aI414
aI310
aI480
aI385
aI489
aI295
aI160
aI58
aI453
aI18
aI80
aI264
aI271
aI33
aI273
aI31
aI79
aI201
aI95
aI388
aI6
aI26
aI427
aI153
aI48
aI78
aI211
aI97
aI250
aI334
aI499
aI372
aI27
aI328
aI184
aI378
aI151
aI83
aI2
aI317
asI116
(lp117
I251
aI98
aI12
aI174
aI356
aI194
aI302
aI37
aI195
aI89
aI138
aI193
aI204
aI376
aI121
aI60
aI366
aI166
aI10
aI360
aI490
aI128
aI394
aI244
aI112
aI205
aI393
aI132
aI253
aI189
aI405
aI314
aI317
aI225
aI221
aI66
aI346
aI30
aI309
aI268
aI188
aI40
aI249
aI24
aI197
aI316
aI47
aI273
aI146
aI305
asI117
(lp118
I354
aI437
aI346
aI168
aI35
aI321
aI300
aI374
aI442
aI227
aI380
aI62
aI333
aI388
aI292
aI68
aI144
aI133
aI88
aI373
aI401
aI222
aI92
aI220
aI137
aI146
aI93
aI129
aI358
aI252
aI330
aI232
aI160
aI130
aI115
aI27
aI416
aI56
aI226
aI394
aI97
aI274
aI357
aI34
aI54
aI249
aI218
aI477
aI384
aI96
asI118
(lp119
I213
aI369
aI16
aI48
aI401
aI476
aI324
aI141
aI378
aI247
aI216
aI111
aI246
aI245
aI157
aI262
aI13
aI449
aI408
aI308
aI354
aI276
aI211
aI1
aI33
aI8
aI204
aI284
aI356
aI28
aI90
aI343
aI55
aI325
aI80
aI38
aI295
aI100
aI426
aI218
aI140
aI137
aI312
aI210
aI72
aI291
aI486
aI26
aI448
aI172
asI119
(lp120
I366
aI270
aI284
aI426
aI85
aI486
aI360
aI379
aI152
aI274
aI135
aI127
aI136
aI336
aI194
aI369
aI279
aI397
aI402
aI163
aI99
aI73
aI49
aI385
aI95
aI2
aI297
aI81
aI33
aI244
aI242
aI40
aI288
aI182
aI39
aI309
aI27
aI495
aI197
aI341
aI401
aI161
aI91
aI131
aI350
aI1
aI456
aI94
aI428
aI108
asI120
(lp121
I221
aI46
aI209
aI3
aI61
aI242
aI269
aI145
aI132
aI215
aI203
aI237
aI457
aI494
aI118
aI214
aI52
aI200
aI69
aI115
aI305
aI122
aI383
aI276
aI162
aI340
aI104
aI11
aI275
aI264
aI391
aI25
aI73
aI322
aI498
aI190
aI224
aI286
aI384
aI66
aI407
aI249
aI191
aI166
aI293
aI339
aI177
aI278
aI426
aI395
asI121
(lp122
I367
aI358
aI49
aI61
aI62
aI364
aI48
aI120
aI5
aI63
aI330
aI219
aI118
aI127
aI108
aI1
aI288
aI117
aI149
aI405
aI201
aI457
aI265
aI39
aI369
aI159
aI111
aI140
aI374
aI24
aI423
aI21
aI473
aI175
aI404
aI157
aI375
aI445
aI191
aI152
aI317
aI454
aI469
aI58
aI70
aI366
aI223
aI403
aI259
aI22
asI122
(lp123
I336
aI117
aI293
aI225
aI88
aI185
aI303
aI476
aI322
aI171
aI296
aI180
aI46
aI208
aI29
aI315
aI155
aI472
aI402
aI473
aI415
aI182
aI406
aI341
aI427
aI124
aI338
aI353
aI478
aI425
aI352
aI205
aI384
aI261
aI22
aI283
aI138
aI471
aI32
aI119
aI247
aI143
aI230
aI492
aI257
aI59
aI194
aI411
aI335
aI65
asI123
(lp124
I106
aI224
aI280
aI241
aI495
aI71
aI6
aI183
aI305
aI77
aI66
aI80
aI76
aI347
aI28
aI185
aI443
aI306
aI218
aI32
aI362
aI22
aI309
aI321
aI16
aI194
aI69
aI99
aI286
aI494
aI45
aI157
aI229
aI152
aI84
aI416
aI408
aI377
aI414
aI353
aI211
aI326
aI419
aI480
aI291
aI92
aI137
aI96
aI37
aI68
asI124
(lp125
I241
aI131
aI350
aI441
aI250
aI182
aI471
aI399
aI191
aI361
aI327
aI375
aI409
aI245
aI370
aI437
aI10
aI302
aI276
aI120
aI86
aI477
aI356
aI492
aI24
aI440
aI415
aI398
aI434
aI401
aI64
aI160
aI110
aI286
aI34
aI240
aI221
aI295
aI172
aI109
aI462
aI247
aI123
aI18
aI319
aI337
aI371
aI187
aI449
aI424
asI125
(lp126
I339
aI228
aI468
aI371
aI199
aI32
aI85
aI315
aI50
aI427
aI408
aI95
aI296
aI366
aI205
aI109
aI434
aI72
aI27
aI114
aI456
aI150
aI362
aI423
aI445
aI266
aI319
aI428
aI219
aI78
aI49
aI155
aI70
aI230
aI231
aI325
aI285
aI340
aI322
aI34
aI387
aI21
aI232
aI400
aI261
aI335
aI45
aI71
aI252
aI234
asI126
(lp127
I123
aI42
aI316
aI106
aI147
aI152
aI385
aI380
aI79
aI77
aI272
aI102
aI56
aI423
aI299
aI268
aI48
aI361
aI226
aI386
aI130
aI31
aI163
aI357
aI483
aI350
aI482
aI44
aI33
aI18
aI20
aI240
aI193
aI390
aI215
aI212
aI69
aI491
aI200
aI255
aI301
aI294
aI83
aI438
aI459
aI394
aI432
aI370
aI422
aI305
asI127
(lp128
I417
aI217
aI1
aI39
aI321
aI378
aI142
aI464
aI56
aI486
aI260
aI111
aI138
aI416
aI365
aI8
aI136
aI60
aI294
aI387
aI99
aI213
aI375
aI303
aI258
aI372
aI129
aI10
aI336
aI435
aI216
aI28
aI497
aI89
aI471
aI183
aI79
aI58
aI108
aI427
aI404
aI331
aI234
aI437
aI78
aI214
aI203
aI17
aI411
aI256
asI128
(lp129
I404
aI94
aI83
aI33
aI495
aI51
aI14
aI480
aI208
aI15
aI241
aI256
aI401
aI293
aI43
aI155
aI209
aI454
aI57
aI232
aI299
aI310
aI441
aI303
aI201
aI255
aI11
aI113
aI275
aI460
aI67
aI251
aI341
aI433
aI3
aI297
aI44
aI396
aI221
aI270
aI379
aI294
aI16
aI484
aI176
aI292
aI397
aI107
aI53
aI72
asI129
(lp130
I488
aI38
aI316
aI158
aI398
aI231
aI429
aI259
aI152
aI385
aI305
aI270
aI70
aI8
aI86
aI453
aI477
aI381
aI29
aI419
aI66
aI31
aI304
aI216
aI170
aI487
aI297
aI289
aI312
aI254
aI120
aI269
aI422
aI379
aI91
aI100
aI155
aI331
aI22
aI227
aI339
aI288
aI243
aI441
aI10
aI198
aI184
aI495
aI348
aI188
asI130
(lp131
I219
aI192
aI127
aI32
aI60
aI487
aI356
aI475
aI322
aI41
aI269
aI236
aI342
aI435
aI72
aI429
aI129
aI24
aI481
aI210
aI384
aI437
aI348
aI292
aI124
aI448
aI223
aI499
aI213
aI56
aI334
aI12
aI102
aI272
aI31
aI10
aI195
aI242
aI330
aI162
aI178
aI389
aI421
aI186
aI257
aI203
aI261
aI75
aI341
aI378
asI131
(lp132
I248
aI467
aI54
aI411
aI257
aI413
aI298
aI382
aI434
aI247
aI398
aI356
aI292
aI62
aI453
aI135
aI425
aI315
aI90
aI290
aI238
aI329
aI161
aI195
aI183
aI300
aI164
aI71
aI270
aI297
aI93
aI324
aI47
aI281
aI419
aI63
aI294
aI445
aI327
aI492
aI173
aI370
aI218
aI246
aI387
aI358
aI182
aI433
aI272
aI443
asI132
(lp133
I241
aI137
aI14
aI112
aI465
aI487
aI424
aI167
aI464
aI133
aI406
aI18
aI207
aI27
aI90
aI306
aI263
aI198
aI54
aI457
aI65
aI372
aI62
aI234
aI376
aI147
aI37
aI6
aI166
aI346
aI469
aI26
aI429
aI367
aI474
aI499
aI82
aI342
aI434
aI303
aI100
aI10
aI108
aI194
aI332
aI150
aI290
aI153
aI361
aI470
asI133
(lp134
I436
aI440
aI87
aI448
aI313
aI487
aI356
aI351
aI76
aI372
aI275
aI222
aI390
aI344
aI407
aI81
aI73
aI243
aI184
aI77
aI139
aI57
aI265
aI129
aI19
aI397
aI279
aI219
aI94
aI119
aI151
aI155
aI416
aI283
aI65
aI107
aI149
aI361
aI205
aI234
aI172
aI322
aI156
aI435
aI294
aI223
aI418
aI39
aI348
aI259
asI134
(lp135
I463
aI413
aI458
aI178
aI489
aI272
aI219
aI186
aI70
aI230
aI499
aI226
aI151
aI84
aI11
aI396
aI285
aI358
aI386
aI129
aI311
aI183
aI498
aI494
aI174
aI387
aI166
aI75
aI244
aI102
aI130
aI141
aI462
aI55
aI18
aI434
aI324
aI306
aI188
aI475
aI453
aI456
aI291
aI294
aI256
aI163
aI203
aI56
aI255
aI465
asI135
(lp136
I379
aI181
aI8
aI171
aI487
aI5
aI336
aI313
aI452
aI235
aI239
aI287
aI198
aI480
aI87
aI393
aI400
aI236
aI226
aI45
aI294
aI81
aI241
aI310
aI320
aI482
aI125
aI367
aI16
aI461
aI23
aI261
aI262
aI77
aI353
aI113
aI21
aI381
aI96
aI112
aI178
aI33
aI375
aI64
aI448
aI106
aI92
aI483
aI62
aI228
asI136
(lp137
I387
aI109
aI388
aI353
aI98
aI375
aI266
aI1
aI82
aI153
aI348
aI142
aI358
aI466
aI405
aI168
aI241
aI107
aI359
aI3
aI280
aI234
aI352
aI347
aI201
aI382
aI99
aI404
aI443
aI197
aI115
aI344
aI284
aI262
aI251
aI6
aI373
aI162
aI128
aI456
aI70
aI204
aI58
aI7
aI497
aI421
aI339
aI422
aI127
aI485
asI137
(lp138
I328
aI274
aI159
aI462
aI441
aI172
aI120
aI189
aI9
aI165
aI385
aI210
aI206
aI147
aI244
aI18
aI392
aI42
aI345
aI485
aI232
aI273
aI467
aI6
aI470
aI22
aI484
aI199
aI437
aI477
aI14
aI124
aI255
aI88
aI410
aI400
aI106
aI166
aI333
aI361
aI86
aI33
aI70
aI499
aI426
aI409
aI351
aI171
aI48
aI47
asI138
(lp139
I478
aI487
aI143
aI499
aI498
aI105
aI428
aI435
aI149
aI119
aI60
aI274
aI479
aI306
aI155
aI45
aI313
aI371
aI421
aI409
aI432
aI384
aI338
aI312
aI355
aI335
aI51
aI255
aI66
aI484
aI225
aI5
aI22
aI451
aI387
aI177
aI175
aI447
aI234
aI52
aI92
aI49
aI13
aI36
aI473
aI47
aI363
aI244
aI470
aI168
asI139
(lp140
I310
aI416
aI203
aI142
aI396
aI414
aI158
aI74
aI418
aI366
aI481
aI137
aI115
aI228
aI243
aI187
aI134
aI356
aI391
aI451
aI458
aI277
aI486
aI66
aI169
aI120
aI407
aI165
aI412
aI102
aI110
aI383
aI483
aI331
aI410
aI421
aI86
aI425
aI148
aI261
aI96
aI34
aI312
aI415
aI171
aI285
aI72
aI388
aI54
aI441
asI140
(lp141
I198
aI65
aI159
aI301
aI105
aI306
aI324
aI259
aI343
aI240
aI230
aI207
aI203
aI333
aI471
aI90
aI35
aI83
aI415
aI497
aI348
aI398
aI389
aI464
aI384
aI484
aI10
aI17
aI59
aI61
aI446
aI113
aI371
aI226
aI190
aI487
aI6
aI440
aI422
aI91
aI45
aI275
aI95
aI186
aI204
aI328
aI78
aI172
aI431
aI184
asI141
(lp142
I323
aI46
aI377
aI330
aI393
aI70
aI468
aI166
aI398
aI443
aI189
aI116
aI316
aI482
aI496
aI201
aI203
aI65
aI450
aI471
aI382
aI13
aI118
aI415
aI221
aI242
aI315
aI139
aI293
aI175
aI486
aI86
aI205
aI338
aI190
aI479
aI437
aI217
aI362
aI105
aI138
aI460
aI409
aI493
aI359
aI84
aI354
aI215
aI82
aI195
asI142
(lp143
I266
aI110
aI500
aI134
aI113
aI407
aI378
aI264
aI107
aI229
aI47
aI414
aI290
aI419
aI263
aI302
aI8
aI411
aI9
aI431
aI278
aI226
aI291
aI98
aI38
aI354
aI11
aI224
aI450
aI123
aI196
aI121
aI44
aI109
aI377
aI227
aI117
aI155
aI369
aI262
aI99
aI84
aI307
aI128
aI104
aI223
aI366
aI413
aI364
aI270
asI143
(lp144
I285
aI267
aI258
aI325
aI177
aI157
aI44
aI395
aI73
aI391
aI32
aI324
aI98
aI284
aI216
aI45
aI401
aI50
aI389
aI204
aI191
aI317
aI314
aI367
aI406
aI278
aI15
aI359
aI83
aI212
aI61
aI226
aI450
aI474
aI282
aI221
aI451
aI230
aI175
aI388
aI159
aI306
aI434
aI209
aI54
aI478
aI297
aI112
aI328
aI248
asI144
(lp145
I249
aI290
aI405
aI471
aI37
aI261
aI155
aI485
aI315
aI483
aI53
aI139
aI93
aI409
aI10
aI236
aI75
aI326
aI275
aI375
aI146
aI296
aI225
aI173
aI218
aI160
aI481
aI432
aI472
aI417
aI136
aI181
aI148
aI441
aI342
aI423
aI426
aI469
aI137
aI304
aI254
aI382
aI68
aI283
aI364
aI264
aI86
aI411
aI121
aI356
asI145
(lp146
I450
aI358
aI214
aI60
aI468
aI20
aI65
aI378
aI85
aI260
aI140
aI360
aI47
aI175
aI311
aI62
aI162
aI478
aI200
aI319
aI90
aI115
aI276
aI417
aI41
aI179
aI155
aI452
aI160
aI268
aI464
aI374
aI298
aI35
aI259
aI488
aI411
aI453
aI34
aI368
aI67
aI435
aI221
aI159
aI356
aI39
aI373
aI459
aI55
aI89
asI146
(lp147
I154
aI271
aI261
aI472
aI374
aI108
aI211
aI264
aI82
aI49
aI21
aI321
aI3
aI381
aI38
aI277
aI262
aI255
aI97
aI442
aI52
aI190
aI406
aI435
aI79
aI424
aI117
aI479
aI270
aI256
aI386
aI322
aI90
aI183
aI272
aI391
aI238
aI203
aI232
aI116
aI164
aI258
aI189
aI45
aI486
aI260
aI328
aI19
aI315
aI367
asI147
(lp148
I20
aI349
aI82
aI56
aI30
aI303
aI310
aI86
aI205
aI431
aI98
aI102
aI487
aI425
aI64
aI354
aI330
aI389
aI65
aI363
aI248
aI132
aI36
aI430
aI59
aI365
aI321
aI428
aI333
aI309
aI33
aI299
aI187
aI319
aI151
aI347
aI77
aI444
aI387
aI460
aI38
aI22
aI464
aI458
aI415
aI373
aI91
aI399
aI326
aI315
asI148
(lp149
I274
aI451
aI126
aI307
aI233
aI302
aI418
aI37
aI100
aI251
aI174
aI220
aI27
aI166
aI51
aI226
aI456
aI231
aI230
aI461
aI264
aI426
aI336
aI381
aI212
aI397
aI270
aI392
aI483
aI57
aI253
aI470
aI322
aI108
aI255
aI153
aI132
aI409
aI304
aI289
aI216
aI430
aI203
aI236
aI113
aI386
aI217
aI354
aI175
aI61
asI149
(lp150
I16
aI143
aI321
aI433
aI70
aI144
aI247
aI56
aI399
aI6
aI408
aI223
aI350
aI219
aI499
aI105
aI379
aI290
aI416
aI197
aI486
aI5
aI289
aI352
aI166
aI125
aI46
aI288
aI66
aI448
aI249
aI423
aI207
aI293
aI474
aI331
aI281
aI227
aI296
aI347
aI145
aI500
aI215
aI156
aI270
aI69
aI83
aI256
aI17
aI454
asI150
(lp151
I67
aI36
aI215
aI439
aI416
aI259
aI323
aI238
aI420
aI306
aI221
aI10
aI267
aI225
aI108
aI74
aI480
aI395
aI408
aI43
aI145
aI171
aI131
aI301
aI450
aI493
aI497
aI119
aI318
aI23
aI233
aI250
aI459
aI275
aI208
aI499
aI383
aI423
aI380
aI468
aI285
aI366
aI143
aI402
aI393
aI184
aI182
aI87
aI197
aI175
asI151
(lp152
I180
aI33
aI388
aI279
aI254
aI381
aI424
aI404
aI439
aI47
aI166
aI5
aI203
aI384
aI61
aI23
aI335
aI206
aI35
aI117
aI353
aI123
aI153
aI41
aI44
aI174
aI18
aI249
aI300
aI400
aI173
aI270
aI69
aI383
aI154
aI142
aI338
aI371
aI253
aI90
aI198
aI382
aI60
aI275
aI96
aI362
aI72
aI190
aI351
aI24
asI152
(lp153
I401
aI94
aI314
aI448
aI21
aI463
aI389
aI482
aI452
aI499
aI464
aI249
aI299
aI248
aI57
aI157
aI282
aI277
aI147
aI273
aI250
aI86
aI188
aI290
aI43
aI197
aI461
aI135
aI205
aI96
aI16
aI4
aI95
aI467
aI441
aI284
aI458
aI323
aI475
aI383
aI283
aI113
aI53
aI18
aI444
aI337
aI31
aI378
aI245
aI63
asI153
(lp154
I15
aI440
aI225
aI127
aI17
aI91
aI175
aI496
aI164
aI304
aI83
aI451
aI149
aI409
aI29
aI368
aI8
aI211
aI89
aI187
aI344
aI280
aI431
aI366
aI128
aI417
aI275
aI296
aI220
aI311
aI445
aI60
aI252
aI179
aI372
aI346
aI464
aI21
aI221
aI455
aI244
aI92
aI74
aI131
aI267
aI126
aI231
aI98
aI167
aI69
asI154
(lp155
I381
aI335
aI426
aI417
aI331
aI287
aI375
aI143
aI11
aI451
aI157
aI17
aI427
aI188
aI20
aI479
aI396
aI26
aI266
aI425
aI13
aI322
aI94
aI394
aI184
aI185
aI326
aI364
aI297
aI211
aI118
aI212
aI492
aI354
aI490
aI63
aI438
aI457
aI5
aI355
aI284
aI357
aI325
aI208
aI461
aI472
aI442
aI460
aI140
aI448
asI155
(lp156
I206
aI311
aI112
aI411
aI67
aI455
aI304
aI406
aI388
aI64
aI80
aI142
aI268
aI164
aI437
aI303
aI271
aI383
aI492
aI96
aI374
aI348
aI193
aI2
aI351
aI171
aI449
aI84
aI249
aI194
aI200
aI336
aI395
aI352
aI398
aI497
aI243
aI40
aI297
aI261
aI428
aI8
aI240
aI496
aI335
aI322
aI41
aI17
aI389
aI151
asI156
(lp157
I154
aI382
aI397
aI247
aI53
aI155
aI285
aI424
aI354
aI72
aI355
aI441
aI428
aI488
aI308
aI293
aI117
aI302
aI203
aI499
aI398
aI136
aI151
aI246
aI472
aI430
aI44
aI411
aI281
aI352
aI108
aI67
aI25
aI7
aI482
aI209
aI123
aI486
aI297
aI74
aI57
aI480
aI116
aI196
aI275
aI33
aI294
aI493
aI2
aI410
asI157
(lp158
I113
aI349
aI404
aI81
aI302
aI135
aI337
aI37
aI317
aI412
aI235
aI350
aI318
aI272
aI107
aI430
aI262
aI44
aI49
aI4
aI469
aI386
aI229
aI324
aI392
aI112
aI373
aI346
aI259
aI70
aI394
aI128
aI148
aI92
aI300
aI5
aI331
aI43
aI25
aI172
aI316
aI85
aI93
aI472
aI390
aI399
aI59
aI436
aI368
aI151
asI158
(lp159
I477
aI293
aI86
aI449
aI76
aI239
aI232
aI20
aI300
aI68
aI318
aI205
aI72
aI83
aI421
aI117
aI471
aI75
aI141
aI271
aI14
aI378
aI167
aI95
aI333
aI38
aI469
aI234
aI154
aI424
aI249
aI120
aI371
aI500
aI394
aI321
aI462
aI13
aI109
aI264
aI235
aI195
aI440
aI456
aI63
aI251
aI393
aI134
aI67
aI295
asI159
(lp160
I353
aI495
aI499
aI253
aI233
aI367
aI308
aI416
aI64
aI104
aI85
aI463
aI67
aI62
aI66
aI43
aI90
aI451
aI399
aI347
aI148
aI317
aI154
aI322
aI420
aI281
aI360
aI201
aI276
aI164
aI82
aI408
aI402
aI221
aI240
aI473
aI98
aI247
aI371
aI415
aI29
aI422
aI401
aI207
aI63
aI328
aI177
aI372
aI6
aI480
asI160
(lp161
I247
aI444
aI324
aI131
aI264
aI186
aI262
aI286
aI172
aI276
aI449
aI326
aI261
aI2
aI386
aI271
aI13
aI350
aI273
aI308
aI320
aI383
aI349
aI317
aI29
aI16
aI373
aI482
aI96
aI9
aI130
aI144
aI67
aI220
aI197
aI441
aI424
aI325
aI111
aI173
aI4
aI279
aI280
aI190
aI475
aI125
aI340
aI179
aI183
aI153
asI161
(lp162
I232
aI71
aI426
aI251
aI484
aI43
aI203
aI236
aI114
aI404
aI61
aI271
aI419
aI256
aI245
aI384
aI314
aI127
aI72
aI183
aI212
aI378
aI332
aI343
aI323
aI433
aI126
aI196
aI186
aI276
aI92
aI132
aI421
aI406
aI216
aI437
aI488
aI279
aI454
aI487
aI178
aI136
aI361
aI482
aI115
aI85
aI143
aI418
aI340
aI283
asI162
(lp163
I37
aI462
aI236
aI443
aI139
aI307
aI129
aI473
aI228
aI482
aI207
aI105
aI190
aI270
aI371
aI304
aI84
aI262
aI11
aI386
aI309
aI4
aI222
aI5
aI369
aI151
aI487
aI288
aI477
aI297
aI362
aI51
aI174
aI269
aI16
aI57
aI259
aI73
aI198
aI217
aI90
aI210
aI415
aI328
aI494
aI31
aI444
aI364
aI192
aI314
asI163
(lp164
I395
aI368
aI143
aI409
aI471
aI200
aI13
aI307
aI259
aI362
aI132
aI93
aI27
aI34
aI403
aI100
aI129
aI159
aI78
aI138
aI118
aI343
aI189
aI306
aI316
aI8
aI186
aI278
aI377
aI456
aI390
aI305
aI281
aI102
aI81
aI355
aI333
aI56
aI458
aI402
aI313
aI224
aI446
aI178
aI450
aI302
aI216
aI420
aI167
aI240
asI164
(lp165
I49
aI157
aI29
aI179
aI495
aI283
aI104
aI456
aI140
aI28
aI357
aI115
aI463
aI344
aI273
aI259
aI150
aI410
aI87
aI489
aI67
aI84
aI303
aI237
aI312
aI375
aI247
aI385
aI368
aI411
aI403
aI425
aI186
aI391
aI106
aI232
aI180
aI54
aI367
aI241
aI313
aI414
aI95
aI10
aI382
aI239
aI483
aI219
aI356
aI341
asI165
(lp166
I293
aI161
aI274
aI208
aI402
aI353
aI251
aI378
aI27
aI122
aI392
aI315
aI330
aI417
aI2
aI23
aI461
aI205
aI438
aI86
aI474
aI62
aI117
aI176
aI9
aI71
aI296
aI76
aI278
aI396
aI42
aI1
aI50
aI22
aI350
aI422
aI179
aI186
aI206
aI243
aI339
aI148
aI175
aI287
aI331
aI471
aI306
aI5
aI72
aI467
asI166
(lp167
I443
aI433
aI108
aI177
aI185
aI390
aI25
aI48
aI191
aI459
aI115
aI335
aI187
aI354
aI140
aI182
aI58
aI208
aI410
aI54
aI79
aI2
aI299
aI163
aI207
aI46
aI364
aI363
aI139
aI75
aI425
aI376
aI484
aI28
aI8
aI269
aI452
aI49
aI417
aI104
aI202
aI308
aI282
aI385
aI59
aI355
aI289
aI95
aI262
aI426
asI167
(lp168
I491
aI180
aI82
aI51
aI173
aI19
aI114
aI499
aI101
aI128
aI197
aI453
aI442
aI477
aI468
aI295
aI111
aI57
aI428
aI372
aI80
aI86
aI230
aI176
aI129
aI143
aI154
aI220
aI203
aI346
aI446
aI198
aI323
aI371
aI282
aI239
aI251
aI325
aI63
aI41
aI336
aI221
aI240
aI118
aI49
aI201
aI391
aI136
aI326
aI303
asI168
(lp169
I7
aI412
aI154
aI141
aI147
aI304
aI145
aI433
aI374
aI245
aI165
aI98
aI336
aI240
aI125
aI26
aI455
aI291
aI413
aI394
aI174
aI469
aI150
aI85
aI3
aI391
aI324
aI370
aI445
aI108
aI300
aI331
aI10
aI161
aI178
aI248
aI400
aI180
aI42
aI170
aI480
aI384
aI434
aI369
aI185
aI214
aI476
aI284
aI382
aI140
asI169
(lp170
I290
aI131
aI318
aI85
aI243
aI496
aI103
aI472
aI389
aI81
aI175
aI372
aI92
aI394
aI314
aI488
aI126
aI475
aI159
aI41
aI458
aI368
aI179
aI174
aI43
aI221
aI499
aI220
aI192
aI32
aI413
aI188
aI460
aI354
aI110
aI261
aI204
aI60
aI334
aI183
aI228
aI245
aI269
aI48
aI109
aI288
aI282
aI42
aI200
aI149
asI170
(lp171
I199
aI332
aI159
aI99
aI85
aI257
aI352
aI193
aI483
aI423
aI441
aI412
aI336
aI107
aI434
aI230
aI251
aI65
aI317
aI369
aI293
aI17
aI446
aI77
aI76
aI166
aI491
aI68
aI407
aI209
aI445
aI437
aI63
aI372
aI319
aI139
aI339
aI142
aI458
aI346
aI163
aI218
aI351
aI55
aI183
aI302
aI431
aI440
aI151
aI436
asI171
(lp172
I348
aI317
aI313
aI139
aI478
aI236
aI182
aI169
aI52
aI84
aI120
aI312
aI189
aI101
aI316
aI8
aI59
aI321
aI17
aI460
aI329
aI138
aI184
aI464
aI21
aI190
aI67
aI137
aI345
aI473
aI83
aI128
aI389
aI388
aI126
aI49
aI467
aI365
aI215
aI103
aI192
aI80
aI10
aI2
aI145
aI308
aI13
aI307
aI78
aI243
asI172
(lp173
I432
aI99
aI258
aI333
aI306
aI214
aI65
aI226
aI130
aI239
aI6
aI453
aI86
aI277
aI431
aI44
aI375
aI221
aI322
aI26
aI466
aI126
aI335
aI34
aI446
aI233
aI467
aI160
aI212
aI146
aI387
aI264
aI257
aI183
aI90
aI368
aI24
aI296
aI18
aI39
aI479
aI268
aI181
aI422
aI136
aI43
aI180
aI410
aI491
aI240
asI173
(lp174
I187
aI253
aI6
aI221
aI327
aI216
aI317
aI308
aI490
aI143
aI428
aI359
aI353
aI497
aI159
aI118
aI420
aI412
aI17
aI483
aI345
aI144
aI93
aI65
aI381
aI76
aI14
aI340
aI263
aI77
aI414
aI189
aI82
aI474
aI411
aI416
aI458
aI1
aI459
aI150
aI138
aI469
aI293
aI455
aI436
aI488
aI283
aI219
aI422
aI50
asI174
(lp175
I419
aI305
aI136
aI492
aI465
aI188
aI290
aI129
aI333
aI167
aI466
aI470
aI281
aI393
aI66
aI373
aI32
aI223
aI91
aI426
aI304
aI279
aI493
aI317
aI68
aI257
aI369
aI109
aI479
aI106
aI345
aI241
aI206
aI256
aI491
aI354
aI315
aI25
aI224
aI276
aI448
aI399
aI368
aI449
aI18
aI385
aI472
aI236
aI407
aI430
asI175
(lp176
I222
aI488
aI173
aI211
aI349
aI275
aI115
aI227
aI28
aI210
aI45
aI157
aI155
aI331
aI242
aI214
aI258
aI452
aI333
aI434
aI468
aI265
aI457
aI263
aI309
aI13
aI325
aI132
aI23
aI278
aI202
aI208
aI352
aI376
aI160
aI284
aI75
aI197
aI224
aI99
aI286
aI473
aI389
aI393
aI35
aI147
aI288
aI59
aI354
aI364
asI176
(lp177
I494
aI250
aI451
aI15
aI11
aI73
aI335
aI415
aI439
aI286
aI33
aI285
aI262
aI156
aI362
aI245
aI394
aI111
aI210
aI141
aI408
aI96
aI385
aI333
aI179
aI88
aI13
aI244
aI4
aI356
aI83
aI447
aI124
aI200
aI19
aI445
aI470
aI456
aI172
aI237
aI466
aI74
aI448
aI105
aI161
aI3
aI275
aI343
aI7
aI150
asI177
(lp178
I414
aI204
aI182
aI241
aI188
aI124
aI333
aI116
aI447
aI458
aI199
aI302
aI109
aI435
aI397
aI190
aI86
aI45
aI83
aI62
aI275
aI360
aI299
aI372
aI235
aI405
aI255
aI231
aI398
aI76
aI36
aI254
aI181
aI202
aI336
aI26
aI489
aI107
aI256
aI35
aI132
aI37
aI390
aI403
aI207
aI66
aI131
aI364
aI30
aI14
asI178
(lp179
I217
aI197
aI273
aI23
aI473
aI114
aI116
aI180
aI80
aI316
aI353
aI200
aI450
aI485
aI369
aI39
aI51
aI295
aI31
aI16
aI423
aI163
aI206
aI429
aI494
aI43
aI262
aI390
aI218
aI229
aI312
aI207
aI293
aI205
aI4
aI126
aI323
aI169
aI135
aI120
aI142
aI311
aI302
aI8
aI322
aI434
aI334
aI144
aI428
aI479
asI179
(lp180
I252
aI479
aI46
aI70
aI410
aI440
aI249
aI299
aI460
aI243
aI373
aI317
aI302
aI398
aI240
aI444
aI6
aI298
aI383
aI478
aI326
aI316
aI300
aI347
aI170
aI41
aI157
aI450
aI451
aI495
aI270
aI112
aI224
aI431
aI314
aI307
aI355
aI487
aI126
aI480
aI175
aI358
aI159
aI344
aI310
aI71
aI194
aI378
aI367
aI377
asI180
(lp181
I83
aI76
aI430
aI411
aI446
aI181
aI116
aI272
aI17
aI120
aI398
aI10
aI451
aI124
aI49
aI202
aI64
aI321
aI7
aI306
aI187
aI23
aI28
aI135
aI241
aI242
aI161
aI498
aI80
aI415
aI171
aI82
aI324
aI345
aI228
aI360
aI92
aI43
aI227
aI354
aI11
aI179
aI46
aI156
aI352
aI143
aI126
aI253
aI322
aI31
asI181
(lp182
I416
aI279
aI316
aI298
aI447
aI424
aI230
aI385
aI174
aI397
aI333
aI376
aI371
aI351
aI306
aI30
aI187
aI106
aI120
aI389
aI164
aI254
aI9
aI404
aI130
aI153
aI479
aI83
aI301
aI492
aI48
aI355
aI107
aI303
aI201
aI413
aI74
aI314
aI113
aI272
aI405
aI47
aI289
aI210
aI411
aI3
aI283
aI335
aI300
aI395
asI182
(lp183
I374
aI423
aI468
aI242
aI151
aI268
aI299
aI386
aI213
aI262
aI329
aI385
aI250
aI495
aI450
aI292
aI202
aI61
aI211
aI89
aI113
aI452
aI260
aI35
aI447
aI84
aI341
aI54
aI221
aI340
aI283
aI425
aI254
aI488
aI417
aI258
aI77
aI171
aI15
aI259
aI238
aI411
aI87
aI362
aI375
aI427
aI336
aI152
aI239
aI296
asI183
(lp184
I51
aI217
aI461
aI21
aI328
aI54
aI155
aI192
aI385
aI89
aI24
aI219
aI215
aI480
aI193
aI393
aI144
aI242
aI204
aI23
aI324
aI39
aI405
aI136
aI339
aI146
aI479
aI345
aI302
aI310
aI348
aI25
aI61
aI409
aI195
aI269
aI129
aI187
aI375
aI395
aI336
aI261
aI239
aI253
aI432
aI241
aI404
aI120
aI426
aI233
asI184
(lp185
I497
aI433
aI119
aI339
aI349
aI486
aI488
aI344
aI321
aI246
aI318
aI216
aI142
aI50
aI295
aI276
aI421
aI154
aI240
aI208
aI399
aI67
aI494
aI55
aI303
aI437
aI221
aI356
aI37
aI71
aI155
aI53
aI40
aI424
aI254
aI454
aI14
aI183
aI204
aI108
aI41
aI244
aI444
aI31
aI477
aI60
aI253
aI81
aI479
aI145
asI185
(lp186
I186
aI222
aI126
aI399
aI316
aI177
aI47
aI196
aI230
aI43
aI35
aI281
aI187
aI103
aI465
aI72
aI278
aI313
aI371
aI191
aI427
aI59
aI231
aI219
aI264
aI45
aI470
aI467
aI488
aI149
aI108
aI202
aI452
aI178
aI437
aI469
aI99
aI432
aI352
aI129
aI80
aI16
aI451
aI36
aI341
aI270
aI109
aI385
aI199
aI165
asI186
(lp187
I349
aI114
aI227
aI103
aI332
aI463
aI234
aI416
aI97
aI161
aI58
aI316
aI126
aI500
aI175
aI451
aI235
aI378
aI263
aI347
aI199
aI468
aI84
aI215
aI454
aI328
aI443
aI307
aI319
aI358
aI475
aI151
aI110
aI299
aI45
aI406
aI257
aI268
aI266
aI80
aI213
aI237
aI289
aI414
aI184
aI176
aI341
aI24
aI142
aI90
asI187
(lp188
I336
aI51
aI74
aI70
aI260
aI488
aI81
aI145
aI5
aI165
aI217
aI90
aI254
aI199
aI26
aI460
aI20
aI154
aI325
aI79
aI69
aI111
aI420
aI86
aI210
aI110
aI18
aI168
aI283
aI3
aI212
aI353
aI224
aI450
aI248
aI208
aI255
aI351
aI477
aI43
aI219
aI389
aI483
aI87
aI152
aI266
aI216
aI173
aI181
aI272
asI188
(lp189
I165
aI438
aI255
aI303
aI349
aI373
aI11
aI379
aI160
aI92
aI10
aI418
aI100
aI430
aI494
aI149
aI394
aI435
aI451
aI61
aI340
aI460
aI417
aI168
aI443
aI257
aI226
aI478
aI437
aI162
aI199
aI376
aI301
aI305
aI355
aI77
aI283
aI108
aI392
aI320
aI359
aI285
aI212
aI95
aI13
aI483
aI170
aI321
aI247
aI467
asI189
(lp190
I317
aI110
aI328
aI238
aI221
aI107
aI451
aI66
aI230
aI448
aI258
aI195
aI163
aI101
aI228
aI414
aI272
aI435
aI245
aI365
aI263
aI149
aI253
aI490
aI256
aI254
aI146
aI65
aI18
aI88
aI19
aI428
aI62
aI321
aI450
aI130
aI386
aI303
aI235
aI124
aI167
aI119
aI276
aI121
aI393
aI6
aI151
aI369
aI40
aI63
asI190
(lp191
I382
aI270
aI306
aI443
aI122
aI336
aI179
aI225
aI6
aI489
aI58
aI240
aI126
aI138
aI408
aI451
aI496
aI177
aI330
aI238
aI247
aI265
aI384
aI7
aI474
aI104
aI359
aI273
aI427
aI479
aI318
aI452
aI455
aI391
aI411
aI221
aI258
aI343
aI315
aI235
aI284
aI360
aI499
aI249
aI296
aI352
aI208
aI197
aI380
aI51
asI191
(lp192
I420
aI261
aI413
aI329
aI52
aI489
aI9
aI182
aI221
aI285
aI438
aI455
aI103
aI322
aI306
aI132
aI220
aI395
aI129
aI372
aI488
aI284
aI95
aI270
aI328
aI480
aI497
aI151
aI264
aI68
aI464
aI239
aI459
aI481
aI316
aI27
aI403
aI211
aI342
aI373
aI149
aI5
aI232
aI474
aI105
aI477
aI248
aI250
aI308
aI213
asI192
(lp193
I311
aI452
aI99
aI229
aI112
aI125
aI138
aI27
aI49
aI481
aI239
aI182
aI3
aI207
aI285
aI238
aI216
aI131
aI78
aI7
aI484
aI66
aI134
aI315
aI280
aI316
aI87
aI115
aI284
aI367
aI37
aI244
aI114
aI325
aI185
aI157
aI428
aI268
aI416
aI408
aI421
aI85
aI333
aI237
aI430
aI404
aI137
aI431
aI147
aI435
asI193
(lp194
I47
aI220
aI401
aI102
aI328
aI326
aI8
aI238
aI386
aI472
aI3
aI344
aI115
aI390
aI9
aI113
aI371
aI123
aI465
aI85
aI54
aI26
aI112
aI372
aI120
aI415
aI200
aI212
aI208
aI347
aI125
aI480
aI211
aI240
aI436
aI410
aI469
aI131
aI258
aI337
aI339
aI147
aI56
aI254
aI230
aI194
aI468
aI186
aI257
aI101
asI194
(lp195
I274
aI406
aI36
aI371
aI331
aI436
aI191
aI328
aI106
aI16
aI162
aI124
aI369
aI367
aI476
aI50
aI129
aI286
aI499
aI182
aI428
aI261
aI55
aI326
aI325
aI360
aI497
aI78
aI238
aI449
aI45
aI420
aI447
aI473
aI82
aI313
aI66
aI478
aI464
aI243
aI29
aI350
aI271
aI108
aI117
aI21
aI492
aI242
aI96
aI352
asI195
(lp196
I143
aI332
aI327
aI8
aI83
aI368
aI311
aI215
aI207
aI232
aI170
aI307
aI329
aI227
aI99
aI259
aI366
aI171
aI49
aI80
aI182
aI493
aI266
aI374
aI299
aI239
aI226
aI481
aI129
aI24
aI415
aI222
aI397
aI500
aI96
aI82
aI220
aI93
aI447
aI120
aI469
aI412
aI315
aI87
aI253
aI153
aI204
aI346
aI159
aI177
asI196
(lp197
I9
aI265
aI276
aI100
aI293
aI449
aI294
aI324
aI489
aI166
aI423
aI237
aI101
aI114
aI319
aI143
aI178
aI84
aI412
aI419
aI347
aI199
aI396
aI97
aI13
aI460
aI486
aI477
aI382
aI390
aI21
aI333
aI136
aI76
aI111
aI495
aI422
aI462
aI263
aI128
aI221
aI372
aI470
aI348
aI158
aI107
aI194
aI106
aI452
aI317
asI197
(lp198
I4
aI273
aI303
aI133
aI102
aI184
aI343
aI180
aI373
aI2
aI114
aI380
aI131
aI359
aI313
aI447
aI283
aI311
aI417
aI5
aI108
aI117
aI88
aI84
aI238
aI329
aI382
aI192
aI451
aI248
aI218
aI1
aI115
aI97
aI369
aI150
aI377
aI484
aI226
aI45
aI489
aI425
aI178
aI176
aI64
aI278
aI290
aI246
aI112
aI116
asI198
(lp199
I290
aI320
aI318
aI12
aI330
aI423
aI359
aI64
aI265
aI71
aI191
aI367
aI14
aI421
aI277
aI118
aI305
aI123
aI21
aI449
aI361
aI377
aI100
aI395
aI312
aI261
aI413
aI459
aI397
aI58
aI158
aI382
aI180
aI477
aI297
aI216
aI482
aI116
aI189
aI253
aI179
aI75
aI465
aI42
aI460
aI54
aI349
aI249
aI481
aI496
asI199
(lp200
I365
aI300
aI142
aI189
aI469
aI185
aI275
aI204
aI262
aI55
aI117
aI68
aI327
aI207
aI388
aI183
aI160
aI276
aI72
aI143
aI186
aI97
aI320
aI458
aI456
aI453
aI21
aI228
aI442
aI219
aI65
aI194
aI461
aI39
aI279
aI238
aI314
aI106
aI64
aI188
aI455
aI290
aI464
aI86
aI346
aI305
aI99
aI144
aI44
aI62
asI200
(lp201
I488
aI30
aI75
aI64
aI85
aI237
aI97
aI442
aI80
aI295
aI32
aI303
aI376
aI382
aI254
aI412
aI474
aI448
aI141
aI164
aI177
aI78
aI187
aI464
aI83
aI468
aI223
aI403
aI472
aI315
aI363
aI264
aI155
aI341
aI432
aI34
aI42
aI481
aI440
aI221
aI162
aI229
aI167
aI383
aI395
aI146
aI366
aI424
aI72
aI345
asI201
(lp202
I57
aI78
aI28
aI450
aI144
aI278
aI291
aI378
aI490
aI469
aI222
aI389
aI193
aI248
aI77
aI41
aI42
aI315
aI30
aI414
aI231
aI61
aI230
aI325
aI267
aI418
aI330
aI122
aI22
aI439
aI188
aI343
aI473
aI47
aI458
aI395
aI229
aI219
aI206
aI110
aI369
aI136
aI111
aI382
aI416
aI438
aI317
aI380
aI497
aI442
asI202
(lp203
I30
aI116
aI286
aI219
aI350
aI81
aI454
aI102
aI467
aI130
aI304
aI474
aI64
aI329
aI417
aI192
aI395
aI287
aI308
aI410
aI243
aI146
aI67
aI458
aI271
aI451
aI442
aI124
aI330
aI253
aI104
aI173
aI381
aI117
aI75
aI279
aI114
aI323
aI240
aI224
aI32
aI303
aI136
aI208
aI241
aI209
aI429
aI293
aI294
aI244
asI203
(lp204
I124
aI467
aI69
aI60
aI475
aI62
aI314
aI134
aI53
aI142
aI29
aI374
aI489
aI271
aI418
aI191
aI41
aI262
aI171
aI1
aI123
aI287
aI417
aI388
aI432
aI166
aI165
aI415
aI54
aI27
aI232
aI368
aI16
aI245
aI396
aI57
aI324
aI113
aI263
aI282
aI94
aI255
aI307
aI140
aI228
aI323
aI471
aI244
aI457
aI285
asI204
(lp205
I65
aI305
aI356
aI338
aI199
aI452
aI415
aI425
aI309
aI233
aI174
aI160
aI62
aI180
aI51
aI255
aI8
aI93
aI287
aI203
aI492
aI282
aI427
aI495
aI108
aI47
aI155
aI424
aI134
aI313
aI176
aI299
aI268
aI311
aI414
aI113
aI249
aI437
aI120
aI34
aI372
aI144
aI11
aI253
aI112
aI267
aI188
aI476
aI473
aI38
asI205
(lp206
I200
aI324
aI109
aI327
aI347
aI453
aI196
aI253
aI151
aI206
aI325
aI406
aI226
aI344
aI435
aI70
aI345
aI461
aI396
aI399
aI443
aI421
aI276
aI96
aI287
aI268
aI304
aI456
aI382
aI75
aI138
aI271
aI72
aI66
aI235
aI9
aI293
aI500
aI475
aI101
aI240
aI79
aI201
aI442
aI239
aI114
aI39
aI417
aI229
aI106
asI206
(lp207
I338
aI388
aI23
aI284
aI266
aI78
aI302
aI409
aI136
aI379
aI37
aI323
aI67
aI459
aI6
aI276
aI210
aI386
aI212
aI364
aI368
aI1
aI279
aI287
aI367
aI183
aI449
aI304
aI410
aI272
aI177
aI393
aI113
aI100
aI186
aI458
aI378
aI3
aI144
aI192
aI152
aI246
aI343
aI263
aI377
aI479
aI354
aI18
aI394
aI109
asI207
(lp208
I391
aI184
aI272
aI228
aI343
aI478
aI108
aI448
aI116
aI211
aI299
aI194
aI84
aI466
aI485
aI237
aI124
aI79
aI39
aI403
aI287
aI173
aI437
aI421
aI231
aI277
aI187
aI316
aI383
aI377
aI439
aI497
aI230
aI101
aI474
aI152
aI64
aI241
aI298
aI92
aI186
aI65
aI371
aI174
aI286
aI307
aI219
aI427
aI229
aI392
asI208
(lp209
I353
aI468
aI302
aI174
aI268
aI36
aI147
aI88
aI500
aI81
aI424
aI52
aI244
aI421
aI398
aI179
aI67
aI132
aI487
aI260
aI85
aI364
aI253
aI306
aI150
aI82
aI326
aI233
aI209
aI324
aI495
aI164
aI223
aI238
aI408
aI10
aI418
aI469
aI114
aI498
aI46
aI392
aI103
aI394
aI407
aI228
aI2
aI349
aI442
aI110
asI209
(lp210
I435
aI88
aI130
aI480
aI430
aI268
aI39
aI474
aI91
aI481
aI185
aI98
aI202
aI407
aI211
aI279
aI80
aI281
aI351
aI100
aI65
aI255
aI433
aI205
aI495
aI265
aI497
aI126
aI361
aI18
aI377
aI290
aI121
aI193
aI271
aI237
aI58
aI151
aI251
aI452
aI434
aI245
aI482
aI226
aI375
aI437
aI1
aI195
aI17
aI108
asI210
(lp211
I74
aI367
aI176
aI321
aI326
aI157
aI202
aI129
aI163
aI78
aI131
aI485
aI96
aI477
aI236
aI416
aI153
aI260
aI25
aI256
aI43
aI70
aI67
aI214
aI265
aI26
aI439
aI452
aI293
aI89
aI472
aI240
aI442
aI324
aI150
aI279
aI104
aI340
aI448
aI241
aI322
aI133
aI54
aI57
aI36
aI407
aI177
aI53
aI385
aI354
asI211
(lp212
I375
aI92
aI63
aI328
aI15
aI314
aI417
aI261
aI249
aI420
aI262
aI276
aI121
aI80
aI303
aI120
aI491
aI222
aI201
aI416
aI346
aI334
aI61
aI26
aI459
aI370
aI435
aI114
aI357
aI499
aI74
aI486
aI156
aI312
aI127
aI90
aI463
aI170
aI369
aI105
aI362
aI297
aI352
aI17
aI93
aI226
aI230
aI77
aI480
aI203
asI212
(lp213
I36
aI408
aI53
aI196
aI35
aI40
aI485
aI5
aI206
aI457
aI450
aI63
aI411
aI180
aI358
aI152
aI454
aI481
aI269
aI491
aI333
aI288
aI17
aI484
aI31
aI428
aI366
aI174
aI329
aI421
aI399
aI127
aI442
aI176
aI320
aI83
aI42
aI232
aI456
aI114
aI149
aI312
aI82
aI419
aI102
aI74
aI157
aI202
aI317
aI396
asI213
(lp214
I297
aI68
aI442
aI474
aI496
aI6
aI264
aI168
aI401
aI371
aI166
aI361
aI275
aI15
aI429
aI61
aI73
aI378
aI62
aI63
aI395
aI285
aI7
aI93
aI70
aI214
aI409
aI8
aI443
aI326
aI247
aI279
aI192
aI494
aI447
aI283
aI232
aI179
aI464
aI458
aI36
aI425
aI112
aI243
aI104
aI489
aI356
aI476
aI271
aI31
asI214
(lp215
I405
aI25
aI7
aI221
aI311
aI105
aI118
aI344
aI452
aI136
aI234
aI219
aI173
aI441
aI438
aI434
aI373
aI146
aI171
aI325
aI381
aI32
aI140
aI360
aI143
aI44
aI46
aI284
aI374
aI253
aI357
aI81
aI266
aI80
aI288
aI263
aI167
aI22
aI260
aI430
aI95
aI112
aI245
aI53
aI363
aI153
aI82
aI68
aI184
aI432
asI215
(lp216
I466
aI99
aI71
aI323
aI198
aI254
aI84
aI427
aI334
aI171
aI284
aI321
aI242
aI473
aI160
aI310
aI468
aI20
aI209
aI264
aI426
aI346
aI49
aI453
aI91
aI195
aI305
aI146
aI268
aI430
aI189
aI344
aI408
aI275
aI181
aI250
aI246
aI76
aI410
aI28
aI103
aI340
aI205
aI251
aI434
aI219
aI154
aI169
aI235
aI58
asI216
(lp217
I457
aI40
aI14
aI319
aI442
aI128
aI120
aI260
aI46
aI65
aI63
aI401
aI426
aI307
aI197
aI428
aI306
aI101
aI448
aI109
aI244
aI453
aI483
aI28
aI214
aI499
aI477
aI435
aI383
aI305
aI151
aI95
aI53
aI411
aI410
aI290
aI344
aI304
aI209
aI43
aI412
aI280
aI138
aI172
aI45
aI131
aI219
aI3
aI1
aI201
asI217
(lp218
I76
aI77
aI81
aI189
aI108
aI371
aI283
aI456
aI486
aI250
aI58
aI332
aI94
aI426
aI448
aI286
aI104
aI321
aI441
aI430
aI96
aI242
aI57
aI431
aI259
aI496
aI256
aI312
aI434
aI61
aI254
aI318
aI458
aI297
aI239
aI408
aI204
aI324
aI152
aI307
aI102
aI317
aI124
aI99
aI384
aI475
aI355
aI4
aI362
aI498
asI218
(lp219
I104
aI365
aI6
aI446
aI173
aI148
aI438
aI55
aI147
aI128
aI484
aI150
aI142
aI469
aI343
aI266
aI178
aI52
aI186
aI275
aI407
aI315
aI387
aI222
aI31
aI106
aI139
aI320
aI496
aI346
aI82
aI436
aI488
aI214
aI301
aI209
aI84
aI101
aI253
aI195
aI329
aI291
aI336
aI79
aI338
aI60
aI460
aI161
aI461
aI316
asI219
(lp220
I416
aI234
aI245
aI229
aI232
aI480
aI59
aI472
aI169
aI119
aI500
aI18
aI323
aI422
aI22
aI80
aI335
aI404
aI418
aI48
aI337
aI490
aI442
aI145
aI461
aI459
aI250
aI6
aI144
aI389
aI345
aI464
aI108
aI370
aI202
aI467
aI88
aI434
aI348
aI349
aI494
aI203
aI268
aI42
aI317
aI176
aI333
aI397
aI153
aI16
asI220
(lp221
I197
aI67
aI1
aI8
aI437
aI138
aI275
aI287
aI314
aI265
aI280
aI56
aI470
aI387
aI145
aI213
aI466
aI277
aI219
aI125
aI290
aI215
aI272
aI308
aI401
aI283
aI397
aI382
aI416
aI140
aI184
aI159
aI152
aI181
aI281
aI262
aI388
aI460
aI247
aI58
aI465
aI266
aI190
aI114
aI113
aI434
aI376
aI317
aI57
aI11
asI221
(lp222
I430
aI289
aI40
aI326
aI172
aI158
aI90
aI365
aI187
aI293
aI217
aI295
aI288
aI129
aI239
aI250
aI341
aI60
aI115
aI86
aI50
aI445
aI127
aI141
aI273
aI305
aI487
aI394
aI184
aI93
aI291
aI406
aI64
aI428
aI408
aI247
aI47
aI52
aI103
aI400
aI139
aI391
aI231
aI488
aI366
aI410
aI414
aI17
aI264
aI166
asI222
(lp223
I493
aI63
aI197
aI186
aI45
aI9
aI370
aI188
aI125
aI38
aI241
aI102
aI254
aI185
aI95
aI397
aI459
aI44
aI161
aI248
aI94
aI83
aI270
aI128
aI264
aI198
aI70
aI420
aI53
aI409
aI439
aI351
aI293
aI74
aI212
aI17
aI427
aI2
aI187
aI190
aI259
aI286
aI288
aI492
aI29
aI207
aI214
aI100
aI498
aI339
asI223
(lp224
I20
aI175
aI277
aI342
aI85
aI99
aI312
aI95
aI280
aI142
aI72
aI452
aI317
aI310
aI304
aI443
aI91
aI218
aI383
aI73
aI6
aI45
aI348
aI265
aI321
aI485
aI36
aI122
aI367
aI111
aI457
aI233
aI270
aI169
aI316
aI165
aI173
aI216
aI153
aI494
aI474
aI328
aI389
aI207
aI294
aI18
aI355
aI48
aI8
aI492
asI224
(lp225
I289
aI425
aI205
aI295
aI165
aI25
aI22
aI119
aI38
aI174
aI434
aI185
aI15
aI315
aI211
aI71
aI430
aI416
aI486
aI3
aI383
aI446
aI200
aI107
aI208
aI122
aI276
aI481
aI46
aI66
aI149
aI351
aI483
aI421
aI75
aI202
aI391
aI321
aI62
aI406
aI410
aI60
aI250
aI11
aI444
aI339
aI442
aI394
aI145
aI348
asI225
(lp226
I241
aI345
aI217
aI442
aI417
aI401
aI27
aI361
aI270
aI30
aI157
aI260
aI145
aI24
aI363
aI143
aI456
aI70
aI479
aI465
aI206
aI57
aI244
aI400
aI95
aI273
aI195
aI414
aI424
aI437
aI428
aI341
aI200
aI224
aI65
aI212
aI138
aI7
aI174
aI449
aI229
aI305
aI106
aI319
aI409
aI33
aI262
aI193
aI171
aI474
asI226
(lp227
I268
aI318
aI101
aI83
aI68
aI33
aI398
aI215
aI394
aI46
aI293
aI48
aI347
aI166
aI320
aI265
aI358
aI366
aI53
aI216
aI209
aI212
aI291
aI169
aI495
aI350
aI263
aI423
aI267
aI367
aI1
aI349
aI329
aI241
aI7
aI62
aI20
aI11
aI234
aI471
aI137
aI229
aI34
aI233
aI92
aI179
aI474
aI396
aI498
aI142
asI227
(lp228
I70
aI448
aI82
aI337
aI275
aI44
aI347
aI213
aI69
aI15
aI76
aI54
aI445
aI484
aI248
aI387
aI224
aI373
aI385
aI483
aI317
aI206
aI187
aI232
aI149
aI56
aI468
aI265
aI181
aI469
aI462
aI361
aI191
aI150
aI88
aI470
aI125
aI369
aI11
aI288
aI50
aI93
aI478
aI480
aI202
aI114
aI457
aI249
aI474
aI30
asI228
(lp229
I278
aI103
aI345
aI282
aI184
aI401
aI290
aI299
aI102
aI206
aI227
aI304
aI384
aI244
aI489
aI431
aI483
aI455
aI409
aI92
aI38
aI451
aI95
aI69
aI410
aI329
aI109
aI74
aI289
aI189
aI245
aI359
aI65
aI337
aI317
aI336
aI449
aI90
aI454
aI319
aI482
aI354
aI210
aI232
aI372
aI492
aI22
aI444
aI472
aI157
asI229
(lp230
I73
aI237
aI152
aI413
aI143
aI324
aI181
aI106
aI234
aI270
aI487
aI249
aI22
aI260
aI305
aI171
aI198
aI218
aI82
aI424
aI112
aI83
aI328
aI278
aI197
aI188
aI142
aI310
aI483
aI192
aI438
aI326
aI290
aI362
aI105
aI449
aI52
aI257
aI85
aI262
aI259
aI418
aI390
aI62
aI464
aI281
aI193
aI468
aI369
aI474
asI230
(lp231
I368
aI278
aI81
aI101
aI227
aI145
aI153
aI114
aI5
aI385
aI479
aI492
aI355
aI330
aI43
aI456
aI400
aI136
aI387
aI165
aI243
aI46
aI298
aI263
aI41
aI127
aI203
aI84
aI290
aI211
aI474
aI188
aI430
aI273
aI96
aI359
aI120
aI94
aI370
aI242
aI418
aI469
aI189
aI235
aI37
aI295
aI259
aI79
aI432
aI312
asI231
(lp232
I44
aI481
aI217
aI292
aI245
aI379
aI328
aI39
aI388
aI262
aI414
aI99
aI96
aI261
aI159
aI300
aI469
aI398
aI348
aI210
aI476
aI228
aI17
aI419
aI194
aI68
aI127
aI225
aI12
aI437
aI268
aI351
aI236
aI497
aI19
aI421
aI480
aI202
aI441
aI140
aI401
aI358
aI70
aI327
aI460
aI314
aI389
aI499
aI147
aI40
asI232
(lp233
I490
aI336
aI245
aI474
aI364
aI201
aI157
aI139
aI214
aI200
aI350
aI441
aI338
aI1
aI204
aI21
aI90
aI316
aI354
aI258
aI290
aI360
aI177
aI481
aI135
aI343
aI266
aI333
aI205
aI422
aI357
aI451
aI278
aI471
aI134
aI141
aI323
aI449
aI25
aI242
aI182
aI301
aI259
aI202
aI100
aI335
aI296
aI423
aI143
aI368
asI233
(lp234
I499
aI108
aI52
aI421
aI354
aI475
aI476
aI250
aI381
aI232
aI38
aI333
aI48
aI258
aI26
aI25
aI363
aI290
aI317
aI248
aI152
aI300
aI433
aI14
aI125
aI424
aI485
aI370
aI442
aI362
aI299
aI473
aI207
aI8
aI156
aI491
aI129
aI223
aI406
aI164
aI481
aI47
aI349
aI462
aI37
aI11
aI470
aI218
aI149
aI140
asI234
(lp235
I128
aI397
aI1
aI41
aI123
aI447
aI281
aI29
aI174
aI490
aI62
aI325
aI27
aI190
aI165
aI433
aI360
aI89
aI312
aI191
aI248
aI28
aI130
aI99
aI305
aI64
aI9
aI194
aI105
aI364
aI245
aI40
aI348
aI193
aI498
aI459
aI146
aI383
aI279
aI107
aI412
aI262
aI42
aI218
aI114
aI211
aI327
aI45
aI250
aI299
asI235
(lp236
I133
aI150
aI296
aI212
aI44
aI331
aI316
aI415
aI139
aI60
aI340
aI347
aI83
aI481
aI500
aI480
aI242
aI98
aI289
aI257
aI446
aI195
aI2
aI372
aI71
aI461
aI402
aI129
aI198
aI136
aI176
aI68
aI147
aI453
aI332
aI364
aI36
aI191
aI469
aI440
aI49
aI485
aI416
aI240
aI171
aI213
aI407
aI328
aI189
aI287
asI236
(lp237
I246
aI42
aI354
aI248
aI455
aI472
aI335
aI256
aI392
aI398
aI463
aI91
aI142
aI261
aI233
aI90
aI388
aI468
aI219
aI302
aI197
aI26
aI446
aI351
aI467
aI348
aI104
aI360
aI4
aI210
aI333
aI313
aI199
aI167
aI160
aI8
aI439
aI159
aI326
aI74
aI121
aI322
aI310
aI294
aI245
aI476
aI357
aI484
aI92
aI395
asI237
(lp238
I295
aI338
aI20
aI308
aI72
aI117
aI459
aI391
aI41
aI270
aI43
aI168
aI354
aI217
aI48
aI212
aI1
aI332
aI324
aI325
aI254
aI293
aI488
aI456
aI408
aI77
aI447
aI309
aI240
aI229
aI242
aI278
aI171
aI429
aI194
aI292
aI492
aI247
aI100
aI341
aI98
aI377
aI445
aI88
aI7
aI345
aI262
aI439
aI384
aI121
asI238
(lp239
I186
aI220
aI326
aI452
aI468
aI98
aI344
aI289
aI313
aI55
aI276
aI287
aI37
aI155
aI132
aI190
aI500
aI72
aI311
aI329
aI379
aI87
aI122
aI350
aI481
aI248
aI54
aI120
aI158
aI50
aI370
aI381
aI10
aI176
aI301
aI237
aI163
aI480
aI200
aI354
aI388
aI277
aI443
aI184
aI13
aI51
aI426
aI429
aI208
aI469
asI239
(lp240
I281
aI445
aI45
aI279
aI179
aI26
aI382
aI214
aI36
aI218
aI19
aI421
aI259
aI173
aI491
aI328
aI167
aI398
aI46
aI186
aI60
aI51
aI116
aI388
aI419
aI262
aI338
aI452
aI50
aI437
aI40
aI103
aI72
aI67
aI102
aI352
aI199
aI480
aI364
aI286
aI368
aI293
aI458
aI273
aI315
aI134
aI343
aI138
aI176
aI280
asI240
(lp241
I385
aI23
aI178
aI220
aI378
aI155
aI1
aI396
aI310
aI295
aI425
aI491
aI312
aI237
aI142
aI127
aI203
aI381
aI174
aI319
aI477
aI161
aI191
aI141
aI397
aI356
aI172
aI72
aI256
aI38
aI374
aI353
aI293
aI467
aI408
aI83
aI176
aI33
aI200
aI112
aI138
aI391
aI6
aI332
aI303
aI117
aI399
aI101
aI116
aI94
asI241
(lp242
I236
aI160
aI110
aI58
aI162
aI148
aI430
aI288
aI469
aI32
aI484
aI75
aI412
aI364
aI270
aI17
aI169
aI343
aI450
aI195
aI318
aI178
aI500
aI463
aI137
aI336
aI393
aI315
aI276
aI339
aI206
aI492
aI392
aI177
aI247
aI385
aI299
aI120
aI213
aI80
aI4
aI14
aI154
aI109
aI175
aI15
aI134
aI255
aI342
aI212
asI242
(lp243
I236
aI183
aI453
aI261
aI52
aI164
aI176
aI143
aI324
aI282
aI234
aI47
aI254
aI323
aI161
aI221
aI228
aI34
aI271
aI280
aI209
aI181
aI126
aI405
aI294
aI325
aI252
aI351
aI243
aI11
aI344
aI484
aI365
aI434
aI203
aI86
aI346
aI42
aI406
aI111
aI404
aI284
aI329
aI245
aI22
aI112
aI317
aI407
aI36
aI139
asI243
(lp244
I51
aI424
aI401
aI267
aI379
aI23
aI185
aI328
aI39
aI160
aI57
aI235
aI320
aI467
aI221
aI304
aI46
aI352
aI214
aI273
aI358
aI16
aI249
aI34
aI435
aI131
aI314
aI151
aI419
aI353
aI294
aI237
aI440
aI196
aI189
aI203
aI49
aI18
aI244
aI301
aI246
aI441
aI408
aI15
aI466
aI398
aI194
aI48
aI442
aI490
asI244
(lp245
I461
aI282
aI109
aI204
aI132
aI326
aI232
aI17
aI498
aI438
aI362
aI266
aI381
aI495
aI10
aI178
aI285
aI426
aI479
aI255
aI274
aI246
aI337
aI82
aI374
aI200
aI137
aI32
aI228
aI145
aI424
aI429
aI254
aI233
aI261
aI391
aI320
aI242
aI219
aI432
aI480
aI252
aI195
aI70
aI77
aI134
aI214
aI423
aI500
aI319
asI245
(lp246
I487
aI22
aI313
aI241
aI42
aI414
aI77
aI464
aI205
aI198
aI15
aI179
aI335
aI440
aI269
aI20
aI96
aI448
aI190
aI202
aI253
aI259
aI177
aI370
aI260
aI124
aI438
aI146
aI373
aI422
aI239
aI451
aI377
aI293
aI222
aI203
aI34
aI282
aI479
aI52
aI117
aI88
aI213
aI447
aI26
aI277
aI385
aI72
aI119
aI302
asI246
(lp247
I300
aI332
aI259
aI263
aI9
aI290
aI311
aI82
aI175
aI370
aI500
aI439
aI499
aI18
aI167
aI397
aI473
aI197
aI68
aI407
aI425
aI52
aI140
aI385
aI421
aI78
aI4
aI338
aI188
aI305
aI79
aI182
aI168
aI222
aI428
aI319
aI347
aI485
aI211
aI435
aI294
aI24
aI260
aI102
aI489
aI104
aI13
aI149
aI301
aI138
asI247
(lp248
I259
aI270
aI382
aI26
aI368
aI212
aI470
aI77
aI210
aI60
aI442
aI465
aI215
aI271
aI309
aI78
aI138
aI479
aI214
aI107
aI154
aI27
aI415
aI428
aI389
aI51
aI402
aI395
aI93
aI2
aI59
aI273
aI304
aI53
aI21
aI434
aI438
aI135
aI439
aI257
aI489
aI175
aI213
aI358
aI194
aI156
aI121
aI203
aI320
aI22
asI248
(lp249
I266
aI352
aI221
aI492
aI28
aI97
aI485
aI3
aI190
aI267
aI113
aI186
aI285
aI23
aI52
aI160
aI309
aI16
aI443
aI456
aI307
aI57
aI472
aI317
aI372
aI15
aI302
aI99
aI402
aI242
aI306
aI323
aI416
aI181
aI489
aI219
aI215
aI151
aI295
aI231
aI76
aI96
aI477
aI95
aI311
aI417
aI133
aI217
aI407
aI25
asI249
(lp250
I369
aI287
aI176
aI243
aI164
aI235
aI430
aI359
aI483
aI170
aI8
aI403
aI326
aI489
aI374
aI435
aI178
aI245
aI138
aI68
aI206
aI90
aI259
aI137
aI362
aI106
aI265
aI256
aI196
aI370
aI19
aI286
aI120
aI133
aI135
aI460
aI400
aI294
aI427
aI284
aI291
aI434
aI303
aI92
aI70
aI289
aI350
aI230
aI1
aI141
asI250
(lp251
I253
aI90
aI426
aI386
aI36
aI130
aI463
aI11
aI22
aI123
aI8
aI110
aI218
aI179
aI375
aI319
aI420
aI418
aI196
aI128
aI278
aI18
aI62
aI177
aI85
aI376
aI407
aI499
aI469
aI182
aI56
aI445
aI356
aI1
aI478
aI91
aI231
aI334
aI195
aI324
aI183
aI313
aI476
aI125
aI27
aI293
aI336
aI197
aI295
aI410
asI251
(lp252
I382
aI78
aI210
aI412
aI389
aI309
aI390
aI178
aI320
aI124
aI138
aI486
aI346
aI129
aI156
aI462
aI103
aI144
aI349
aI145
aI215
aI13
aI46
aI148
aI288
aI65
aI401
aI163
aI400
aI149
aI243
aI420
aI298
aI132
aI39
aI417
aI487
aI337
aI326
aI158
aI189
aI451
aI419
aI119
aI179
aI267
aI169
aI470
aI249
aI195
asI252
(lp253
I27
aI474
aI169
aI135
aI106
aI159
aI375
aI107
aI373
aI243
aI334
aI14
aI299
aI399
aI241
aI51
aI285
aI184
aI186
aI99
aI118
aI440
aI337
aI370
aI95
aI10
aI388
aI231
aI316
aI407
aI178
aI396
aI145
aI449
aI432
aI466
aI476
aI275
aI298
aI260
aI35
aI128
aI206
aI172
aI69
aI312
aI301
aI245
aI171
aI38
asI253
(lp254
I132
aI58
aI50
aI304
aI220
aI198
aI491
aI456
aI467
aI49
aI435
aI218
aI156
aI333
aI281
aI241
aI133
aI1
aI376
aI64
aI69
aI7
aI145
aI347
aI92
aI117
aI74
aI216
aI269
aI31
aI2
aI20
aI359
aI86
aI338
aI378
aI387
aI352
aI98
aI75
aI45
aI184
aI91
aI471
aI199
aI477
aI383
aI28
aI267
aI276
asI254
(lp255
I376
aI66
aI64
aI198
aI194
aI351
aI150
aI265
aI356
aI132
aI305
aI450
aI389
aI325
aI462
aI368
aI296
aI320
aI446
aI433
aI341
aI162
aI127
aI271
aI484
aI310
aI263
aI236
aI260
aI500
aI499
aI272
aI147
aI319
aI491
aI36
aI269
aI185
aI295
aI25
aI354
aI284
aI44
aI217
aI102
aI496
aI213
aI9
aI331
aI29
asI255
(lp256
I478
aI377
aI460
aI451
aI494
aI299
aI84
aI110
aI277
aI169
aI321
aI441
aI74
aI224
aI275
aI204
aI302
aI99
aI378
aI296
aI228
aI354
aI117
aI72
aI347
aI37
aI78
aI323
aI192
aI418
aI41
aI198
aI364
aI86
aI171
aI424
aI166
aI268
aI8
aI66
aI80
aI416
aI220
aI482
aI490
aI353
aI397
aI23
aI126
aI422
asI256
(lp257
I214
aI392
aI145
aI78
aI450
aI308
aI327
aI153
aI30
aI469
aI328
aI264
aI351
aI226
aI496
aI101
aI353
aI95
aI140
aI90
aI221
aI322
aI380
aI341
aI241
aI39
aI402
aI205
aI278
aI152
aI355
aI184
aI393
aI274
aI201
aI277
aI397
aI456
aI500
aI251
aI87
aI179
aI473
aI163
aI86
aI316
aI428
aI69
aI217
aI347
asI257
(lp258
I105
aI315
aI455
aI81
aI300
aI333
aI148
aI478
aI263
aI471
aI359
aI247
aI46
aI376
aI273
aI173
aI375
aI343
aI432
aI332
aI133
aI467
aI114
aI108
aI41
aI241
aI316
aI101
aI28
aI52
aI355
aI208
aI229
aI307
aI212
aI75
aI152
aI34
aI457
aI54
aI482
aI191
aI500
aI50
aI270
aI53
aI280
aI188
aI130
aI171
asI258
(lp259
I396
aI164
aI148
aI364
aI268
aI363
aI496
aI165
aI388
aI228
aI168
aI453
aI50
aI255
aI94
aI150
aI28
aI86
aI421
aI260
aI419
aI155
aI413
aI280
aI350
aI329
aI103
aI92
aI111
aI438
aI287
aI216
aI437
aI145
aI166
aI450
aI118
aI344
aI374
aI299
aI91
aI259
aI179
aI204
aI37
aI349
aI218
aI172
aI417
aI341
asI259
(lp260
I311
aI230
aI159
aI419
aI97
aI387
aI313
aI124
aI417
aI58
aI399
aI359
aI96
aI162
aI389
aI224
aI2
aI40
aI256
aI402
aI455
aI312
aI169
aI20
aI167
aI297
aI381
aI289
aI115
aI291
aI55
aI326
aI197
aI407
aI234
aI324
aI415
aI395
aI464
aI244
aI316
aI144
aI125
aI322
aI184
aI474
aI420
aI346
aI430
aI386
asI260
(lp261
I50
aI214
aI305
aI109
aI28
aI498
aI162
aI416
aI122
aI22
aI91
aI449
aI90
aI479
aI1
aI142
aI356
aI430
aI113
aI431
aI186
aI46
aI234
aI114
aI312
aI318
aI470
aI123
aI155
aI38
aI120
aI154
aI11
aI459
aI84
aI300
aI324
aI367
aI119
aI216
aI211
aI405
aI73
aI209
aI289
aI229
aI78
aI151
aI57
aI330
asI261
(lp262
I435
aI78
aI216
aI280
aI492
aI360
aI235
aI160
aI466
aI49
aI377
aI421
aI470
aI175
aI264
aI455
aI144
aI266
aI468
aI397
aI218
aI103
aI391
aI220
aI125
aI306
aI3
aI335
aI320
aI146
aI252
aI67
aI203
aI11
aI167
aI371
aI157
aI62
aI148
aI322
aI190
aI338
aI228
aI416
aI464
aI486
aI284
aI9
aI243
aI290
asI262
(lp263
I396
aI37
aI433
aI28
aI27
aI93
aI380
aI55
aI16
aI129
aI444
aI64
aI481
aI432
aI408
aI302
aI259
aI57
aI41
aI229
aI298
aI321
aI167
aI373
aI297
aI387
aI162
aI60
aI44
aI267
aI232
aI464
aI416
aI213
aI168
aI490
aI101
aI158
aI445
aI154
aI268
aI500
aI14
aI423
aI176
aI12
aI71
aI348
aI257
aI361
asI263
(lp264
I212
aI73
aI301
aI416
aI305
aI479
aI146
aI435
aI404
aI224
aI353
aI52
aI433
aI323
aI190
aI338
aI415
aI349
aI255
aI134
aI225
aI206
aI53
aI402
aI50
aI238
aI59
aI26
aI292
aI30
aI245
aI175
aI229
aI459
aI145
aI278
aI344
aI150
aI108
aI252
aI499
aI152
aI269
aI331
aI2
aI448
aI83
aI247
aI322
aI287
asI264
(lp265
I465
aI207
aI139
aI280
aI391
aI154
aI325
aI369
aI272
aI166
aI118
aI300
aI461
aI19
aI433
aI350
aI407
aI425
aI390
aI382
aI10
aI150
aI129
aI189
aI429
aI240
aI192
aI76
aI334
aI405
aI471
aI114
aI65
aI134
aI165
aI276
aI428
aI487
aI463
aI180
aI436
aI304
aI441
aI77
aI343
aI377
aI70
aI121
aI44
aI3
asI265
(lp266
I73
aI104
aI489
aI443
aI15
aI65
aI212
aI281
aI316
aI156
aI236
aI64
aI31
aI362
aI320
aI153
aI79
aI121
aI202
aI41
aI118
aI444
aI132
aI306
aI229
aI235
aI231
aI350
aI427
aI168
aI339
aI127
aI323
aI463
aI88
aI449
aI147
aI344
aI426
aI84
aI165
aI393
aI134
aI478
aI420
aI247
aI348
aI61
aI146
aI70
asI266
(lp267
I210
aI425
aI79
aI165
aI105
aI267
aI278
aI300
aI176
aI416
aI400
aI99
aI258
aI237
aI357
aI174
aI186
aI374
aI82
aI401
aI123
aI441
aI153
aI54
aI476
aI59
aI418
aI47
aI121
aI367
aI215
aI75
aI19
aI371
aI35
aI171
aI398
aI362
aI442
aI277
aI392
aI194
aI377
aI185
aI69
aI227
aI132
aI445
aI119
aI381
asI267
(lp268
I149
aI55
aI463
aI458
aI163
aI345
aI92
aI194
aI39
aI106
aI402
aI147
aI294
aI98
aI220
aI30
aI391
aI428
aI353
aI248
aI182
aI22
aI108
aI364
aI418
aI282
aI204
aI69
aI205
aI388
aI476
aI245
aI195
aI331
aI15
aI368
aI223
aI48
aI212
aI224
aI109
aI58
aI239
aI107
aI271
aI493
aI360
aI50
aI264
aI404
asI268
(lp269
I151
aI313
aI430
aI483
aI402
aI70
aI5
aI190
aI194
aI351
aI380
aI319
aI455
aI46
aI369
aI28
aI471
aI229
aI422
aI132
aI443
aI363
aI300
aI456
aI213
aI163
aI465
aI39
aI492
aI407
aI467
aI18
aI225
aI108
aI82
aI103
aI42
aI266
aI428
aI287
aI482
aI433
aI256
aI293
aI237
aI89
aI199
aI340
aI277
aI392
asI269
(lp270
I4
aI24
aI169
aI22
aI160
aI7
aI120
aI460
aI226
aI48
aI39
aI146
aI497
aI492
aI53
aI275
aI219
aI252
aI85
aI494
aI212
aI397
aI247
aI318
aI335
aI240
aI132
aI223
aI131
aI486
aI303
aI44
aI332
aI220
aI143
aI350
aI457
aI60
aI8
aI312
aI281
aI157
aI471
aI183
aI2
aI72
aI199
aI78
aI47
aI429
asI270
(lp271
I426
aI81
aI329
aI8
aI186
aI54
aI277
aI248
aI383
aI500
aI474
aI455
aI93
aI17
aI150
aI180
aI22
aI77
aI170
aI91
aI62
aI65
aI374
aI444
aI259
aI357
aI366
aI388
aI397
aI286
aI463
aI497
aI435
aI289
aI132
aI130
aI14
aI267
aI232
aI6
aI42
aI19
aI496
aI13
aI25
aI359
aI324
aI405
aI306
aI139
asI271
(lp272
I196
aI306
aI12
aI95
aI346
aI356
aI481
aI238
aI243
aI333
aI429
aI279
aI1
aI121
aI199
aI94
aI261
aI264
aI137
aI292
aI212
aI256
aI193
aI438
aI80
aI372
aI477
aI127
aI457
aI339
aI425
aI130
aI330
aI57
aI343
aI8
aI298
aI11
aI102
aI419
aI161
aI124
aI44
aI331
aI440
aI109
aI288
aI436
aI378
aI405
asI272
(lp273
I107
aI458
aI407
aI472
aI321
aI455
aI340
aI77
aI385
aI354
aI424
aI348
aI187
aI3
aI170
aI212
aI253
aI361
aI101
aI214
aI219
aI409
aI225
aI127
aI232
aI345
aI160
aI17
aI9
aI280
aI375
aI118
aI411
aI419
aI138
aI234
aI175
aI196
aI79
aI483
aI235
aI193
aI260
aI324
aI408
aI444
aI96
aI429
aI271
aI182
asI273
(lp274
I354
aI413
aI248
aI240
aI191
aI150
aI1
aI206
aI284
aI111
aI64
aI208
aI396
aI184
aI82
aI117
aI188
aI332
aI330
aI362
aI262
aI339
aI348
aI407
aI148
aI323
aI23
aI157
aI298
aI36
aI129
aI441
aI252
aI190
aI15
aI218
aI462
aI485
aI7
aI250
aI40
aI86
aI200
aI344
aI278
aI400
aI324
aI18
aI456
aI243
asI274
(lp275
I346
aI437
aI463
aI494
aI198
aI408
aI256
aI37
aI241
aI108
aI246
aI498
aI42
aI7
aI208
aI296
aI297
aI139
aI447
aI265
aI393
aI288
aI266
aI378
aI167
aI280
aI485
aI401
aI301
aI78
aI475
aI26
aI255
aI61
aI452
aI453
aI306
aI283
aI340
aI101
aI160
aI348
aI191
aI215
aI194
aI261
aI131
aI253
aI58
aI323
asI275
(lp276
I303
aI311
aI338
aI115
aI420
aI449
aI469
aI138
aI250
aI98
aI279
aI186
aI209
aI290
aI294
aI384
aI232
aI43
aI249
aI455
aI299
aI456
aI254
aI22
aI257
aI414
aI313
aI103
aI425
aI106
aI15
aI27
aI268
aI406
aI325
aI84
aI448
aI375
aI154
aI237
aI395
aI339
aI363
aI37
aI418
aI113
aI20
aI462
aI421
aI146
asI276
(lp277
I454
aI386
aI349
aI351
aI373
aI397
aI400
aI69
aI264
aI55
aI79
aI229
aI449
aI498
aI171
aI223
aI466
aI346
aI381
aI323
aI457
aI221
aI134
aI447
aI318
aI40
aI7
aI429
aI78
aI112
aI174
aI198
aI14
aI168
aI422
aI481
aI340
aI137
aI297
aI18
aI490
aI188
aI326
aI107
aI350
aI57
aI92
aI487
aI357
aI420
asI277
(lp278
I232
aI119
aI95
aI468
aI156
aI448
aI248
aI200
aI153
aI117
aI287
aI233
aI77
aI131
aI389
aI284
aI25
aI86
aI313
aI473
aI53
aI17
aI433
aI373
aI57
aI202
aI330
aI407
aI270
aI431
aI229
aI290
aI239
aI331
aI149
aI101
aI491
aI29
aI55
aI307
aI177
aI455
aI288
aI310
aI388
aI352
aI3
aI427
aI35
aI113
asI278
(lp279
I490
aI94
aI362
aI391
aI51
aI351
aI95
aI143
aI52
aI187
aI194
aI413
aI346
aI458
aI271
aI299
aI366
aI251
aI377
aI429
aI239
aI441
aI388
aI436
aI178
aI113
aI83
aI125
aI231
aI276
aI98
aI31
aI261
aI163
aI92
aI27
aI315
aI411
aI192
aI304
aI30
aI105
aI255
aI26
aI483
aI233
aI424
aI211
aI298
aI322
asI279
(lp280
I207
aI475
aI472
aI127
aI298
aI309
aI223
aI135
aI18
aI405
aI490
aI246
aI183
aI236
aI225
aI165
aI128
aI109
aI227
aI112
aI60
aI62
aI32
aI257
aI459
aI80
aI454
aI346
aI401
aI255
aI121
aI300
aI217
aI265
aI22
aI439
aI23
aI449
aI256
aI262
aI77
aI100
aI57
aI247
aI456
aI462
aI313
aI98
aI215
aI414
asI280
(lp281
I118
aI250
aI298
aI287
aI402
aI43
aI318
aI193
aI339
aI462
aI393
aI51
aI254
aI299
aI147
aI340
aI53
aI97
aI234
aI328
aI446
aI474
aI169
aI267
aI231
aI343
aI417
aI483
aI190
aI488
aI493
aI89
aI181
aI469
aI452
aI198
aI358
aI365
aI413
aI309
aI47
aI261
aI384
aI379
aI54
aI93
aI75
aI211
aI6
aI133
asI281
(lp282
I191
aI384
aI421
aI180
aI1
aI178
aI43
aI56
aI235
aI110
aI217
aI35
aI296
aI341
aI475
aI228
aI273
aI232
aI129
aI89
aI264
aI362
aI67
aI172
aI27
aI184
aI270
aI65
aI460
aI378
aI87
aI338
aI346
aI73
aI443
aI200
aI379
aI135
aI389
aI449
aI100
aI55
aI429
aI116
aI246
aI182
aI403
aI21
aI390
aI459
asI282
(lp283
I199
aI6
aI115
aI416
aI454
aI119
aI442
aI323
aI81
aI371
aI487
aI3
aI354
aI140
aI108
aI247
aI499
aI252
aI304
aI92
aI49
aI122
aI328
aI154
aI358
aI439
aI441
aI213
aI424
aI312
aI242
aI363
aI53
aI145
aI45
aI444
aI7
aI157
aI177
aI83
aI132
aI58
aI63
aI105
aI257
aI316
aI37
aI259
aI303
aI310
asI283
(lp284
I255
aI86
aI173
aI167
aI200
aI81
aI335
aI344
aI70
aI312
aI292
aI31
aI239
aI238
aI499
aI163
aI287
aI377
aI226
aI187
aI30
aI350
aI152
aI125
aI352
aI337
aI17
aI2
aI421
aI305
aI311
aI233
aI111
aI316
aI77
aI280
aI41
aI131
aI306
aI90
aI139
aI1
aI4
aI450
aI103
aI162
aI291
aI220
aI326
aI269
asI284
(lp285
I67
aI325
aI424
aI356
aI287
aI97
aI302
aI95
aI259
aI463
aI473
aI455
aI46
aI149
aI303
aI71
aI162
aI387
aI324
aI179
aI189
aI62
aI275
aI253
aI164
aI223
aI232
aI77
aI290
aI482
aI345
aI295
aI444
aI484
aI365
aI341
aI333
aI184
aI206
aI392
aI192
aI440
aI278
aI439
aI454
aI41
aI274
aI346
aI241
aI6
asI285
(lp286
I494
aI110
aI170
aI78
aI421
aI53
aI21
aI469
aI138
aI145
aI264
aI135
aI335
aI74
aI418
aI178
aI287
aI311
aI50
aI124
aI397
aI6
aI298
aI303
aI464
aI497
aI32
aI492
aI265
aI467
aI473
aI126
aI427
aI57
aI288
aI94
aI455
aI237
aI254
aI383
aI271
aI337
aI169
aI40
aI66
aI18
aI402
aI215
aI444
aI318
asI286
(lp287
I363
aI351
aI18
aI74
aI411
aI180
aI380
aI40
aI494
aI300
aI193
aI323
aI314
aI377
aI107
aI13
aI99
aI154
aI246
aI126
aI78
aI56
aI302
aI311
aI186
aI151
aI86
aI303
aI426
aI496
aI451
aI94
aI397
aI219
aI41
aI234
aI57
aI101
aI474
aI381
aI173
aI21
aI183
aI187
aI196
aI480
aI424
aI7
aI466
aI441
asI287
(lp288
I175
aI326
aI263
aI449
aI404
aI257
aI428
aI253
aI308
aI156
aI355
aI331
aI61
aI346
aI96
aI117
aI271
aI255
aI38
aI499
aI119
aI349
aI431
aI367
aI105
aI468
aI77
aI279
aI124
aI333
aI102
aI181
aI185
aI45
aI183
aI361
aI159
aI69
aI100
aI303
aI421
aI455
aI437
aI482
aI68
aI444
aI319
aI310
aI261
aI131
asI288
(lp289
I289
aI384
aI443
aI232
aI404
aI359
aI228
aI484
aI2
aI223
aI183
aI72
aI421
aI186
aI440
aI316
aI328
aI159
aI258
aI187
aI146
aI211
aI179
aI88
aI39
aI108
aI74
aI145
aI335
aI27
aI26
aI285
aI160
aI120
aI165
aI283
aI346
aI236
aI374
aI137
aI489
aI446
aI426
aI309
aI460
aI411
aI193
aI361
aI203
aI382
asI289
(lp290
I316
aI82
aI479
aI351
aI398
aI401
aI118
aI489
aI184
aI245
aI461
aI97
aI207
aI261
aI78
aI254
aI156
aI438
aI320
aI433
aI465
aI29
aI140
aI363
aI153
aI334
aI391
aI251
aI396
aI67
aI125
aI92
aI149
aI292
aI266
aI280
aI83
aI105
aI124
aI454
aI295
aI493
aI60
aI68
aI10
aI453
aI263
aI204
aI321
aI224
asI290
(lp291
I452
aI235
aI200
aI120
aI37
aI50
aI225
aI473
aI338
aI234
aI236
aI417
aI69
aI227
aI222
aI32
aI340
aI83
aI490
aI162
aI443
aI115
aI344
aI315
aI337
aI218
aI494
aI143
aI86
aI9
aI184
aI228
aI11
aI384
aI259
aI375
aI371
aI23
aI356
aI173
aI277
aI461
aI438
aI265
aI355
aI456
aI197
aI252
aI400
aI286
asI291
(lp292
I438
aI300
aI18
aI206
aI316
aI59
aI117
aI210
aI156
aI266
aI244
aI16
aI133
aI303
aI167
aI171
aI90
aI298
aI446
aI201
aI342
aI128
aI415
aI4
aI432
aI218
aI83
aI467
aI424
aI497
aI354
aI434
aI142
aI135
aI200
aI197
aI478
aI469
aI271
aI267
aI138
aI359
aI288
aI30
aI403
aI335
aI398
aI41
aI386
aI396
asI292
(lp293
I481
aI442
aI173
aI331
aI114
aI240
aI104
aI485
aI400
aI249
aI170
aI28
aI278
aI322
aI132
aI147
aI327
aI80
aI377
aI198
aI333
aI101
aI311
aI166
aI83
aI212
aI203
aI492
aI232
aI345
aI341
aI176
aI350
aI82
aI189
aI242
aI113
aI413
aI263
aI58
aI95
aI362
aI421
aI3
aI404
aI357
aI291
aI9
aI323
aI19
asI293
(lp294
I38
aI295
aI308
aI220
aI81
aI408
aI161
aI66
aI225
aI421
aI151
aI310
aI287
aI393
aI198
aI7
aI392
aI141
aI495
aI353
aI340
aI48
aI156
aI195
aI60
aI136
aI42
aI246
aI174
aI213
aI18
aI286
aI35
aI242
aI303
aI435
aI456
aI190
aI345
aI6
aI214
aI413
aI55
aI477
aI223
aI381
aI172
aI13
aI227
aI196
asI294
(lp295
I52
aI262
aI421
aI345
aI212
aI488
aI68
aI215
aI307
aI7
aI463
aI372
aI432
aI314
aI55
aI21
aI370
aI469
aI411
aI439
aI418
aI363
aI174
aI461
aI448
aI209
aI308
aI263
aI125
aI45
aI422
aI360
aI49
aI255
aI434
aI267
aI144
aI479
aI460
aI270
aI243
aI352
aI274
aI84
aI105
aI354
aI123
aI143
aI251
aI489
asI295
(lp296
I395
aI226
aI349
aI62
aI477
aI294
aI118
aI354
aI440
aI187
aI320
aI122
aI367
aI185
aI39
aI429
aI200
aI51
aI73
aI409
aI397
aI337
aI31
aI197
aI134
aI180
aI334
aI182
aI449
aI452
aI242
aI19
aI267
aI160
aI393
aI92
aI361
aI324
aI22
aI492
aI388
aI104
aI359
aI138
aI284
aI424
aI183
aI434
aI325
aI4
asI296
(lp297
I321
aI138
aI323
aI153
aI242
aI437
aI159
aI438
aI433
aI274
aI2
aI105
aI299
aI484
aI119
aI342
aI205
aI318
aI292
aI232
aI338
aI182
aI19
aI388
aI444
aI154
aI404
aI199
aI259
aI214
aI481
aI11
aI152
aI215
aI135
aI356
aI341
aI479
aI322
aI431
aI35
aI487
aI497
aI192
aI365
aI198
aI25
aI260
aI188
aI10
asI297
(lp298
I30
aI408
aI230
aI117
aI15
aI372
aI433
aI475
aI134
aI34
aI236
aI110
aI438
aI457
aI202
aI309
aI254
aI19
aI485
aI79
aI71
aI434
aI178
aI103
aI27
aI56
aI162
aI402
aI280
aI132
aI156
aI174
aI151
aI203
aI91
aI197
aI164
aI283
aI295
aI194
aI407
aI111
aI57
aI368
aI167
aI364
aI285
aI70
aI358
aI467
asI298
(lp299
I279
aI7
aI125
aI213
aI188
aI214
aI143
aI489
aI272
aI358
aI95
aI172
aI57
aI291
aI55
aI50
aI258
aI450
aI219
aI230
aI204
aI72
aI498
aI296
aI88
aI99
aI409
aI245
aI382
aI313
aI387
aI150
aI76
aI34
aI216
aI412
aI278
aI103
aI325
aI297
aI259
aI271
aI134
aI390
aI396
aI274
aI217
aI399
aI394
aI62
asI299
(lp300
I448
aI347
aI136
aI407
aI342
aI141
aI441
aI335
aI485
aI95
aI410
aI145
aI35
aI258
aI463
aI12
aI260
aI331
aI416
aI48
aI54
aI400
aI357
aI231
aI39
aI453
aI268
aI159
aI180
aI177
aI446
aI295
aI179
aI220
aI290
aI354
aI486
aI496
aI484
aI393
aI411
aI330
aI395
aI93
aI398
aI187
aI412
aI500
aI259
aI126
asI300
(lp301
I346
aI359
aI47
aI220
aI427
aI400
aI451
aI238
aI277
aI97
aI89
aI497
aI75
aI330
aI307
aI472
aI181
aI12
aI419
aI384
aI247
aI370
aI442
aI288
aI458
aI151
aI233
aI291
aI500
aI211
aI329
aI193
aI309
aI16
aI492
aI327
aI268
aI377
aI149
aI264
aI171
aI413
aI403
aI434
aI477
aI143
aI301
aI137
aI367
aI416
asI301
(lp302
I484
aI155
aI418
aI455
aI400
aI204
aI158
aI387
aI485
aI441
aI257
aI425
aI263
aI448
aI426
aI444
aI297
aI479
aI450
aI154
aI16
aI121
aI324
aI120
aI106
aI166
aI241
aI200
aI349
aI219
aI127
aI1
aI82
aI323
aI92
aI466
aI436
aI344
aI367
aI87
aI135
aI419
aI321
aI494
aI47
aI317
aI119
aI451
aI223
aI295
asI302
(lp303
I427
aI369
aI449
aI399
aI171
aI100
aI222
aI373
aI7
aI380
aI498
aI225
aI494
aI290
aI54
aI51
aI252
aI249
aI180
aI11
aI94
aI278
aI55
aI307
aI195
aI430
aI426
aI367
aI315
aI472
aI262
aI218
aI267
aI361
aI42
aI466
aI345
aI194
aI103
aI77
aI197
aI40
aI220
aI434
aI190
aI134
aI238
aI205
aI30
aI27
asI303
(lp304
I450
aI59
aI254
aI481
aI134
aI80
aI125
aI248
aI13
aI119
aI327
aI293
aI264
aI275
aI482
aI214
aI164
aI492
aI6
aI11
aI268
aI404
aI475
aI247
aI443
aI433
aI269
aI437
aI22
aI3
aI8
aI442
aI193
aI139
aI365
aI108
aI103
aI387
aI114
aI270
aI34
aI425
aI472
aI183
aI204
aI129
aI372
aI256
aI144
aI490
asI304
(lp305
I270
aI292
aI234
aI268
aI230
aI144
aI162
aI58
aI474
aI353
aI363
aI71
aI160
aI358
aI236
aI468
aI404
aI251
aI178
aI322
aI476
aI15
aI333
aI49
aI96
aI258
aI152
aI117
aI417
aI26
aI372
aI42
aI213
aI316
aI148
aI342
aI382
aI400
aI224
aI373
aI216
aI433
aI431
aI51
aI359
aI145
aI421
aI155
aI488
aI113
asI305
(lp306
I169
aI239
aI419
aI144
aI113
aI313
aI81
aI349
aI138
aI200
aI103
aI479
aI260
aI446
aI492
aI364
aI32
aI398
aI55
aI216
aI236
aI140
aI96
aI403
aI195
aI487
aI89
aI464
aI100
aI329
aI414
aI118
aI470
aI259
aI375
aI217
aI280
aI289
aI368
aI365
aI3
aI443
aI159
aI37
aI300
aI297
aI50
aI16
aI356
aI438
asI306
(lp307
I441
aI157
aI199
aI102
aI434
aI16
aI238
aI254
aI357
aI371
aI227
aI136
aI343
aI354
aI154
aI454
aI224
aI455
aI108
aI279
aI40
aI308
aI289
aI12
aI195
aI349
aI401
aI112
aI335
aI81
aI197
aI91
aI247
aI163
aI120
aI263
aI239
aI383
aI241
aI32
aI186
aI409
aI489
aI13
aI339
aI468
aI276
aI107
aI133
aI3
asI307
(lp308
I381
aI41
aI208
aI404
aI25
aI117
aI377
aI285
aI129
aI183
aI32
aI123
aI490
aI30
aI466
aI142
aI489
aI172
aI395
aI113
aI459
aI227
aI21
aI402
aI118
aI442
aI453
aI333
aI314
aI20
aI171
aI87
aI326
aI283
aI401
aI370
aI491
aI175
aI66
aI101
aI477
aI358
aI63
aI284
aI126
aI469
aI443
aI260
aI165
aI19
asI308
(lp309
I263
aI143
aI440
aI453
aI57
aI384
aI112
aI482
aI299
aI342
aI333
aI375
aI451
aI290
aI89
aI388
aI122
aI54
aI481
aI380
aI134
aI454
aI166
aI463
aI498
aI403
aI365
aI191
aI443
aI251
aI149
aI49
aI114
aI259
aI153
aI340
aI194
aI346
aI358
aI468
aI87
aI56
aI325
aI14
aI11
aI128
aI110
aI359
aI313
aI416
asI309
(lp310
I397
aI56
aI341
aI198
aI88
aI337
aI297
aI398
aI145
aI408
aI176
aI396
aI443
aI410
aI204
aI37
aI65
aI23
aI174
aI319
aI50
aI140
aI76
aI41
aI173
aI296
aI281
aI448
aI294
aI482
aI168
aI82
aI148
aI59
aI81
aI377
aI378
aI5
aI480
aI454
aI332
aI283
aI177
aI205
aI192
aI219
aI6
aI326
aI18
aI320
asI310
(lp311
I316
aI92
aI35
aI86
aI106
aI124
aI36
aI57
aI91
aI414
aI333
aI337
aI140
aI263
aI224
aI123
aI403
aI348
aI459
aI81
aI371
aI142
aI460
aI44
aI148
aI208
aI112
aI49
aI99
aI118
aI161
aI108
aI342
aI187
aI365
aI214
aI199
aI404
aI152
aI407
aI252
aI413
aI385
aI367
aI120
aI480
aI27
aI233
aI135
aI377
asI311
(lp312
I455
aI256
aI347
aI335
aI222
aI265
aI107
aI111
aI80
aI11
aI71
aI444
aI477
aI169
aI429
aI83
aI232
aI78
aI318
aI366
aI441
aI431
aI47
aI176
aI427
aI442
aI317
aI199
aI92
aI128
aI257
aI126
aI424
aI326
aI468
aI247
aI357
aI403
aI156
aI364
aI93
aI134
aI161
aI289
aI448
aI387
aI384
aI320
aI85
aI369
asI312
(lp313
I207
aI360
aI404
aI408
aI440
aI460
aI86
aI280
aI47
aI362
aI283
aI105
aI95
aI228
aI184
aI5
aI48
aI479
aI289
aI66
aI311
aI453
aI56
aI50
aI73
aI379
aI432
aI127
aI3
aI89
aI413
aI388
aI251
aI323
aI480
aI335
aI427
aI295
aI401
aI381
aI442
aI411
aI10
aI357
aI38
aI262
aI44
aI120
aI284
aI87
asI313
(lp314
I19
aI395
aI425
aI267
aI265
aI163
aI20
aI146
aI242
aI79
aI414
aI169
aI314
aI248
aI132
aI481
aI243
aI91
aI180
aI95
aI431
aI151
aI199
aI108
aI284
aI209
aI477
aI435
aI42
aI147
aI340
aI456
aI308
aI231
aI25
aI357
aI225
aI368
aI293
aI118
aI355
aI389
aI5
aI318
aI408
aI275
aI306
aI302
aI189
aI255
asI314
(lp315
I237
aI241
aI412
aI308
aI307
aI394
aI14
aI16
aI287
aI366
aI359
aI87
aI101
aI77
aI321
aI18
aI235
aI96
aI497
aI115
aI491
aI84
aI353
aI380
aI44
aI31
aI411
aI239
aI485
aI410
aI267
aI180
aI452
aI461
aI61
aI450
aI469
aI200
aI443
aI222
aI474
aI422
aI55
aI205
aI438
aI404
aI131
aI210
aI284
aI273
asI315
(lp316
I40
aI17
aI136
aI474
aI216
aI256
aI41
aI138
aI463
aI291
aI221
aI483
aI294
aI276
aI186
aI425
aI62
aI442
aI458
aI324
aI366
aI74
aI236
aI392
aI229
aI28
aI386
aI194
aI172
aI278
aI200
aI207
aI415
aI145
aI329
aI71
aI452
aI16
aI205
aI287
aI82
aI281
aI314
aI444
aI56
aI130
aI267
aI365
aI348
aI235
asI316
(lp317
I412
aI244
aI122
aI274
aI279
aI295
aI211
aI479
aI437
aI484
aI299
aI177
aI398
aI373
aI143
aI400
aI202
aI108
aI25
aI399
aI84
aI215
aI292
aI243
aI394
aI69
aI323
aI288
aI319
aI197
aI95
aI401
aI312
aI459
aI118
aI458
aI421
aI227
aI79
aI475
aI476
aI221
aI117
aI199
aI330
aI149
aI179
aI361
aI33
aI144
asI317
(lp318
I250
aI279
aI45
aI112
aI410
aI276
aI205
aI324
aI9
aI27
aI110
aI79
aI364
aI435
aI93
aI389
aI491
aI197
aI294
aI68
aI231
aI303
aI497
aI153
aI158
aI337
aI267
aI396
aI481
aI407
aI498
aI95
aI89
aI225
aI482
aI157
aI71
aI116
aI378
aI284
aI192
aI226
aI229
aI288
aI413
aI484
aI459
aI489
aI309
aI414
asI318
(lp319
I117
aI40
aI394
aI173
aI451
aI494
aI184
aI388
aI372
aI315
aI84
aI154
aI380
aI500
aI201
aI397
aI179
aI333
aI455
aI279
aI6
aI187
aI411
aI41
aI269
aI350
aI189
aI304
aI141
aI379
aI407
aI25
aI200
aI92
aI457
aI480
aI282
aI296
aI294
aI399
aI290
aI23
aI437
aI205
aI312
aI178
aI56
aI266
aI230
aI73
asI319
(lp320
I467
aI292
aI365
aI313
aI476
aI397
aI312
aI343
aI54
aI415
aI383
aI183
aI499
aI333
aI262
aI83
aI189
aI151
aI225
aI64
aI358
aI500
aI33
aI484
aI247
aI321
aI315
aI146
aI366
aI355
aI401
aI68
aI420
aI278
aI304
aI307
aI24
aI11
aI53
aI216
aI171
aI78
aI485
aI207
aI275
aI70
aI370
aI339
aI301
aI242
asI320
(lp321
I500
aI72
aI145
aI457
aI131
aI497
aI348
aI476
aI316
aI196
aI261
aI464
aI363
aI195
aI344
aI10
aI150
aI101
aI164
aI76
aI484
aI178
aI290
aI231
aI54
aI281
aI361
aI398
aI280
aI417
aI79
aI62
aI141
aI60
aI270
aI385
aI414
aI309
aI462
aI475
aI383
aI409
aI305
aI206
aI18
aI143
aI204
aI14
aI448
aI197
asI321
(lp322
I410
aI254
aI75
aI137
aI486
aI400
aI290
aI253
aI153
aI168
aI391
aI166
aI350
aI423
aI237
aI195
aI286
aI259
aI158
aI15
aI407
aI235
aI6
aI402
aI224
aI248
aI52
aI406
aI327
aI61
aI174
aI322
aI437
aI89
aI251
aI333
aI186
aI326
aI31
aI301
aI147
aI408
aI244
aI230
aI184
aI73
aI455
aI498
aI463
aI385
asI322
(lp323
I104
aI84
aI475
aI9
aI373
aI290
aI316
aI34
aI128
aI263
aI126
aI222
aI40
aI256
aI298
aI423
aI445
aI127
aI216
aI214
aI121
aI496
aI92
aI111
aI255
aI130
aI246
aI409
aI372
aI103
aI217
aI134
aI27
aI305
aI180
aI60
aI283
aI166
aI158
aI187
aI241
aI117
aI464
aI177
aI285
aI184
aI78
aI218
aI120
aI234
asI323
(lp324
I220
aI249
aI378
aI161
aI94
aI50
aI381
aI259
aI209
aI343
aI241
aI139
aI286
aI164
aI361
aI3
aI387
aI294
aI125
aI170
aI450
aI70
aI454
aI400
aI22
aI130
aI470
aI255
aI113
aI138
aI277
aI394
aI318
aI407
aI68
aI391
aI270
aI258
aI432
aI396
aI392
aI475
aI365
aI79
aI355
aI262
aI405
aI63
aI2
aI108
asI324
(lp325
I380
aI480
aI6
aI500
aI427
aI287
aI194
aI8
aI208
aI484
aI243
aI491
aI219
aI293
aI322
aI226
aI173
aI25
aI436
aI133
aI92
aI68
aI389
aI93
aI140
aI235
aI7
aI52
aI466
aI301
aI146
aI253
aI472
aI198
aI108
aI154
aI367
aI441
aI76
aI54
aI75
aI447
aI451
aI111
aI127
aI419
aI279
aI148
aI305
aI231
asI325
(lp326
I255
aI136
aI431
aI140
aI151
aI498
aI124
aI483
aI88
aI128
aI395
aI171
aI380
aI25
aI218
aI271
aI223
aI79
aI397
aI433
aI145
aI261
aI118
aI127
aI264
aI170
aI426
aI398
aI339
aI454
aI318
aI460
aI341
aI479
aI129
aI315
aI78
aI375
aI41
aI180
aI168
aI262
aI56
aI365
aI412
aI404
aI198
aI115
aI154
aI430
asI326
(lp327
I299
aI376
aI386
aI22
aI327
aI446
aI178
aI64
aI35
aI447
aI445
aI212
aI138
aI482
aI135
aI121
aI455
aI246
aI301
aI165
aI500
aI79
aI41
aI76
aI336
aI385
aI28
aI475
aI404
aI19
aI6
aI308
aI257
aI425
aI269
aI379
aI191
aI311
aI88
aI107
aI420
aI120
aI331
aI411
aI286
aI345
aI45
aI312
aI111
aI388
asI327
(lp328
I419
aI344
aI428
aI331
aI299
aI139
aI451
aI37
aI234
aI483
aI21
aI77
aI175
aI289
aI371
aI322
aI49
aI496
aI481
aI72
aI440
aI224
aI150
aI394
aI108
aI100
aI402
aI421
aI206
aI487
aI20
aI128
aI211
aI375
aI497
aI1
aI398
aI111
aI424
aI173
aI468
aI209
aI223
aI96
aI165
aI343
aI154
aI489
aI429
aI291
asI328
(lp329
I413
aI375
aI96
aI407
aI218
aI268
aI238
aI36
aI132
aI143
aI123
aI138
aI344
aI188
aI67
aI23
aI250
aI497
aI421
aI74
aI447
aI91
aI484
aI393
aI465
aI194
aI470
aI157
aI217
aI283
aI310
aI204
aI230
aI463
aI66
aI475
aI115
aI338
aI372
aI165
aI301
aI37
aI128
aI379
aI195
aI19
aI119
aI94
aI357
aI215
asI329
(lp330
I331
aI13
aI417
aI195
aI313
aI446
aI215
aI413
aI95
aI22
aI143
aI381
aI270
aI252
aI466
aI225
aI133
aI366
aI254
aI305
aI476
aI71
aI460
aI389
aI206
aI21
aI379
aI339
aI249
aI33
aI155
aI39
aI61
aI163
aI25
aI298
aI423
aI243
aI183
aI469
aI3
aI18
aI483
aI258
aI222
aI174
aI148
aI176
aI211
aI23
asI330
(lp331
I95
aI159
aI333
aI12
aI143
aI359
aI394
aI230
aI48
aI437
aI144
aI237
aI254
aI77
aI466
aI447
aI323
aI285
aI459
aI298
aI73
aI191
aI431
aI218
aI476
aI468
aI118
aI130
aI65
aI259
aI380
aI315
aI245
aI58
aI231
aI401
aI266
aI222
aI166
aI325
aI349
aI489
aI186
aI13
aI136
aI416
aI78
aI350
aI31
aI371
asI331
(lp332
I264
aI494
aI333
aI3
aI213
aI422
aI346
aI14
aI138
aI190
aI222
aI66
aI293
aI240
aI53
aI26
aI250
aI378
aI369
aI158
aI239
aI39
aI241
aI74
aI381
aI392
aI15
aI455
aI311
aI163
aI76
aI156
aI149
aI445
aI394
aI416
aI192
aI298
aI212
aI391
aI10
aI36
aI296
aI128
aI16
aI98
aI320
aI203
aI405
aI484
asI332
(lp333
I6
aI351
aI168
aI412
aI113
aI166
aI340
aI321
aI497
aI265
aI189
aI126
aI428
aI325
aI192
aI277
aI21
aI55
aI280
aI238
aI94
aI426
aI32
aI337
aI132
aI91
aI266
aI83
aI276
aI141
aI135
aI295
aI462
aI347
aI286
aI379
aI300
aI204
aI104
aI288
aI45
aI476
aI284
aI256
aI178
aI410
aI486
aI326
aI451
aI53
asI333
(lp334
I28
aI74
aI252
aI362
aI321
aI368
aI380
aI396
aI354
aI298
aI300
aI128
aI353
aI75
aI130
aI115
aI273
aI326
aI277
aI392
aI426
aI347
aI309
aI346
aI183
aI195
aI420
aI92
aI148
aI286
aI324
aI297
aI456
aI348
aI328
aI417
aI462
aI294
aI20
aI189
aI114
aI478
aI241
aI363
aI351
aI230
aI498
aI71
aI451
aI174
asI334
(lp335
I275
aI140
aI302
aI245
aI199
aI287
aI285
aI209
aI18
aI377
aI158
aI455
aI167
aI388
aI262
aI219
aI52
aI421
aI450
aI55
aI48
aI30
aI86
aI499
aI247
aI135
aI464
aI487
aI422
aI169
aI373
aI350
aI24
aI305
aI313
aI56
aI256
aI269
aI384
aI387
aI278
aI332
aI73
aI355
aI17
aI376
aI75
aI236
aI274
aI71
asI335
(lp336
I257
aI389
aI350
aI402
aI317
aI478
aI453
aI400
aI379
aI488
aI284
aI264
aI318
aI154
aI399
aI37
aI446
aI361
aI4
aI20
aI296
aI438
aI412
aI270
aI142
aI358
aI121
aI338
aI432
aI470
aI277
aI214
aI401
aI206
aI273
aI23
aI371
aI117
aI344
aI464
aI55
aI291
aI7
aI472
aI34
aI319
aI149
aI227
aI93
aI469
asI336
(lp337
I159
aI254
aI189
aI439
aI140
aI86
aI195
aI33
aI403
aI120
aI80
aI209
aI41
aI416
aI100
aI73
aI474
aI381
aI113
aI428
aI298
aI444
aI423
aI153
aI102
aI216
aI16
aI363
aI418
aI229
aI331
aI396
aI174
aI484
aI262
aI96
aI273
aI279
aI353
aI156
aI58
aI321
aI271
aI310
aI66
aI226
aI465
aI400
aI19
aI282
asI337
(lp338
I236
aI388
aI135
aI238
aI305
aI373
aI203
aI164
aI151
aI390
aI237
aI420
aI370
aI255
aI247
aI96
aI364
aI401
aI493
aI122
aI313
aI22
aI60
aI143
aI376
aI18
aI240
aI398
aI395
aI53
aI214
aI464
aI438
aI271
aI212
aI80
aI71
aI31
aI283
aI468
aI280
aI302
aI477
aI375
aI17
aI324
aI450
aI134
aI314
aI162
asI338
(lp339
I91
aI300
aI387
aI458
aI380
aI247
aI213
aI263
aI116
aI278
aI333
aI441
aI410
aI470
aI144
aI297
aI437
aI312
aI51
aI180
aI492
aI355
aI464
aI351
aI133
aI336
aI159
aI15
aI302
aI462
aI498
aI257
aI301
aI77
aI260
aI13
aI198
aI52
aI175
aI193
aI39
aI218
aI469
aI157
aI190
aI398
aI401
aI154
aI274
aI431
asI339
(lp340
I3
aI294
aI50
aI156
aI78
aI259
aI293
aI226
aI307
aI187
aI266
aI54
aI483
aI52
aI390
aI384
aI18
aI175
aI435
aI446
aI252
aI350
aI11
aI300
aI257
aI434
aI495
aI112
aI250
aI261
aI437
aI153
aI399
aI406
aI369
aI292
aI49
aI105
aI478
aI228
aI190
aI290
aI68
aI284
aI362
aI280
aI142
aI499
aI200
aI130
asI340
(lp341
I461
aI134
aI221
aI27
aI383
aI157
aI348
aI108
aI14
aI39
aI330
aI149
aI289
aI31
aI489
aI78
aI327
aI307
aI135
aI106
aI2
aI292
aI33
aI70
aI326
aI396
aI6
aI243
aI463
aI296
aI194
aI126
aI325
aI366
aI450
aI471
aI227
aI60
aI456
aI127
aI195
aI66
aI229
aI253
aI415
aI264
aI112
aI334
aI184
aI143
asI341
(lp342
I311
aI23
aI372
aI262
aI308
aI408
aI286
aI22
aI410
aI12
aI389
aI244
aI342
aI441
aI72
aI242
aI81
aI475
aI388
aI112
aI221
aI452
aI445
aI451
aI481
aI6
aI257
aI367
aI473
aI490
aI35
aI145
aI494
aI414
aI16
aI364
aI101
aI466
aI21
aI406
aI141
aI398
aI117
aI395
aI179
aI25
aI338
aI168
aI318
aI190
asI342
(lp343
I52
aI276
aI466
aI5
aI10
aI92
aI89
aI408
aI474
aI217
aI287
aI6
aI56
aI317
aI221
aI307
aI284
aI94
aI283
aI387
aI431
aI437
aI337
aI253
aI350
aI76
aI341
aI261
aI372
aI281
aI132
aI208
aI23
aI475
aI222
aI377
aI348
aI62
aI131
aI316
aI51
aI311
aI297
aI50
aI243
aI81
aI155
aI225
aI233
aI119
asI343
(lp344
I328
aI3
aI472
aI20
aI11
aI443
aI393
aI144
aI270
aI334
aI317
aI265
aI308
aI255
aI167
aI396
aI264
aI389
aI272
aI282
aI232
aI227
aI293
aI314
aI46
aI229
aI84
aI404
aI95
aI500
aI212
aI9
aI414
aI203
aI344
aI218
aI323
aI471
aI447
aI110
aI78
aI347
aI487
aI96
aI342
aI193
aI409
aI111
aI372
aI34
asI344
(lp345
I366
aI446
aI321
aI432
aI255
aI236
aI316
aI415
aI426
aI155
aI35
aI260
aI422
aI391
aI76
aI107
aI14
aI233
aI441
aI301
aI150
aI109
aI305
aI389
aI285
aI290
aI457
aI259
aI175
aI307
aI419
aI62
aI333
aI235
aI93
aI282
aI309
aI113
aI39
aI359
aI5
aI219
aI191
aI78
aI170
aI60
aI401
aI131
aI17
aI157
asI345
(lp346
I324
aI127
aI200
aI122
aI497
aI272
aI113
aI446
aI221
aI458
aI30
aI28
aI203
aI404
aI134
aI239
aI74
aI449
aI325
aI46
aI276
aI78
aI146
aI227
aI346
aI50
aI423
aI320
aI292
aI124
aI475
aI260
aI360
aI294
aI457
aI413
aI183
aI299
aI150
aI125
aI52
aI378
aI32
aI251
aI21
aI279
aI68
aI184
aI467
aI216
asI346
(lp347
I272
aI310
aI453
aI330
aI235
aI87
aI54
aI480
aI281
aI222
aI447
aI147
aI67
aI293
aI437
aI321
aI342
aI489
aI397
aI406
aI450
aI403
aI48
aI230
aI70
aI115
aI160
aI23
aI159
aI343
aI109
aI326
aI166
aI214
aI405
aI139
aI348
aI2
aI373
aI38
aI14
aI320
aI145
aI241
aI299
aI238
aI82
aI183
aI66
aI88
asI347
(lp348
I359
aI343
aI280
aI418
aI229
aI55
aI269
aI242
aI218
aI131
aI163
aI362
aI326
aI74
aI344
aI32
aI279
aI193
aI481
aI446
aI368
aI221
aI7
aI198
aI9
aI499
aI451
aI28
aI100
aI468
aI236
aI331
aI13
aI5
aI479
aI152
aI273
aI484
aI212
aI65
aI66
aI317
aI477
aI250
aI424
aI425
aI211
aI144
aI39
aI248
asI348
(lp349
I330
aI343
aI406
aI185
aI492
aI297
aI241
aI24
aI270
aI57
aI462
aI229
aI487
aI69
aI219
aI140
aI401
aI451
aI65
aI51
aI341
aI107
aI309
aI74
aI333
aI68
aI296
aI326
aI153
aI236
aI292
aI250
aI31
aI184
aI354
aI319
aI441
aI461
aI272
aI447
aI334
aI108
aI244
aI368
aI311
aI262
aI194
aI29
aI459
aI411
asI349
(lp350
I51
aI481
aI465
aI310
aI338
aI344
aI157
aI22
aI195
aI422
aI27
aI313
aI412
aI423
aI375
aI478
aI139
aI305
aI472
aI159
aI438
aI69
aI354
aI204
aI90
aI487
aI80
aI197
aI110
aI350
aI61
aI188
aI492
aI9
aI67
aI39
aI281
aI497
aI295
aI294
aI252
aI371
aI172
aI415
aI136
aI257
aI330
aI276
aI198
aI223
asI350
(lp351
I49
aI300
aI292
aI477
aI45
aI162
aI183
aI51
aI408
aI26
aI275
aI98
aI61
aI143
aI129
aI394
aI223
aI250
aI407
aI32
aI211
aI319
aI84
aI213
aI17
aI3
aI339
aI356
aI464
aI254
aI425
aI227
aI116
aI168
aI125
aI388
aI498
aI439
aI333
aI357
aI285
aI337
aI245
aI323
aI104
aI52
aI97
aI88
aI133
aI235
asI351
(lp352
I48
aI121
aI71
aI35
aI169
aI37
aI187
aI459
aI420
aI161
aI224
aI415
aI132
aI197
aI159
aI482
aI168
aI381
aI202
aI433
aI293
aI333
aI489
aI305
aI84
aI406
aI428
aI250
aI376
aI395
aI245
aI370
aI68
aI246
aI301
aI205
aI200
aI164
aI40
aI92
aI473
aI476
aI430
aI52
aI432
aI137
aI480
aI2
aI174
aI488
asI352
(lp353
I486
aI65
aI96
aI391
aI55
aI239
aI19
aI404
aI182
aI34
aI419
aI498
aI376
aI281
aI434
aI296
aI433
aI193
aI470
aI349
aI170
aI131
aI336
aI75
aI13
aI266
aI73
aI79
aI268
aI111
aI30
aI387
aI208
aI168
aI337
aI122
aI26
aI33
aI62
aI249
aI181
aI261
aI216
aI320
aI163
aI484
aI68
aI286
aI63
aI8
asI353
(lp354
I199
aI463
aI229
aI240
aI276
aI305
aI75
aI138
aI135
aI82
aI494
aI197
aI122
aI434
aI224
aI205
aI358
aI408
aI170
aI352
aI81
aI118
aI316
aI253
aI117
aI116
aI2
aI146
aI403
aI112
aI382
aI342
aI55
aI80
aI144
aI395
aI210
aI168
aI359
aI108
aI462
aI174
aI182
aI266
aI396
aI26
aI286
aI489
aI483
aI320
asI354
(lp355
I500
aI319
aI219
aI254
aI139
aI43
aI340
aI22
aI116
aI441
aI12
aI439
aI176
aI457
aI6
aI134
aI438
aI474
aI92
aI448
aI95
aI258
aI458
aI187
aI246
aI77
aI98
aI419
aI4
aI255
aI272
aI178
aI215
aI363
aI416
aI238
aI270
aI68
aI370
aI392
aI311
aI321
aI256
aI296
aI382
aI111
aI20
aI170
aI465
aI102
asI355
(lp356
I460
aI239
aI429
aI310
aI223
aI473
aI308
aI99
aI154
aI197
aI115
aI23
aI463
aI369
aI51
aI18
aI380
aI69
aI242
aI188
aI265
aI94
aI74
aI232
aI324
aI419
aI285
aI12
aI218
aI221
aI184
aI41
aI301
aI201
aI497
aI58
aI89
aI293
aI333
aI267
aI37
aI296
aI50
aI225
aI203
aI356
aI213
aI286
aI280
aI116
asI356
(lp357
I139
aI479
aI323
aI446
aI325
aI108
aI292
aI285
aI423
aI416
aI162
aI385
aI277
aI436
aI21
aI295
aI34
aI176
aI303
aI51
aI185
aI29
aI107
aI297
aI401
aI132
aI418
aI270
aI66
aI402
aI347
aI258
aI290
aI238
aI129
aI309
aI9
aI62
aI64
aI161
aI398
aI159
aI213
aI105
aI470
aI190
aI475
aI117
aI120
aI327
asI357
(lp358
I312
aI354
aI331
aI10
aI257
aI333
aI390
aI314
aI162
aI14
aI187
aI237
aI327
aI216
aI112
aI269
aI337
aI28
aI440
aI295
aI453
aI359
aI7
aI318
aI129
aI194
aI449
aI4
aI211
aI467
aI168
aI275
aI280
aI414
aI203
aI498
aI345
aI351
aI214
aI486
aI138
aI419
aI276
aI254
aI150
aI402
aI149
aI393
aI288
aI140
asI358
(lp359
I105
aI61
aI144
aI433
aI13
aI481
aI100
aI460
aI200
aI8
aI377
aI166
aI249
aI89
aI311
aI39
aI349
aI229
aI350
aI471
aI282
aI274
aI260
aI23
aI283
aI32
aI64
aI270
aI95
aI446
aI340
aI262
aI399
aI255
aI47
aI116
aI9
aI347
aI37
aI438
aI179
aI114
aI152
aI476
aI192
aI190
aI376
aI465
aI46
aI464
asI359
(lp360
I349
aI166
aI193
aI143
aI363
aI492
aI67
aI260
aI455
aI101
aI442
aI231
aI417
aI384
aI175
aI168
aI179
aI252
aI387
aI247
aI146
aI289
aI333
aI92
aI76
aI187
aI52
aI437
aI388
aI254
aI203
aI237
aI301
aI100
aI270
aI310
aI156
aI213
aI444
aI14
aI466
aI31
aI210
aI475
aI383
aI443
aI28
aI214
aI70
aI438
asI360
(lp361
I338
aI456
aI253
aI31
aI461
aI249
aI69
aI47
aI210
aI26
aI372
aI166
aI436
aI344
aI34
aI391
aI73
aI244
aI32
aI41
aI115
aI306
aI126
aI388
aI25
aI204
aI325
aI45
aI205
aI171
aI118
aI161
aI107
aI180
aI227
aI280
aI292
aI175
aI321
aI433
aI469
aI174
aI272
aI493
aI112
aI426
aI12
aI447
aI480
aI209
asI361
(lp362
I479
aI77
aI292
aI414
aI23
aI491
aI86
aI308
aI489
aI198
aI291
aI243
aI101
aI266
aI197
aI210
aI337
aI104
aI383
aI176
aI69
aI339
aI436
aI118
aI299
aI495
aI43
aI472
aI196
aI248
aI302
aI480
aI114
aI17
aI158
aI454
aI378
aI274
aI130
aI462
aI295
aI231
aI212
aI201
aI395
aI279
aI73
aI388
aI463
aI249
asI362
(lp363
I242
aI333
aI463
aI107
aI365
aI376
aI238
aI151
aI75
aI283
aI173
aI125
aI367
aI139
aI106
aI442
aI460
aI426
aI409
aI170
aI319
aI430
aI18
aI448
aI352
aI326
aI279
aI259
aI248
aI303
aI111
aI445
aI281
aI459
aI192
aI194
aI295
aI120
aI251
aI178
aI237
aI180
aI68
aI103
aI415
aI165
aI468
aI13
aI401
aI347
asI363
(lp364
I426
aI95
aI152
aI300
aI284
aI84
aI54
aI62
aI28
aI395
aI199
aI87
aI307
aI485
aI437
aI60
aI40
aI492
aI265
aI274
aI105
aI86
aI138
aI182
aI470
aI477
aI185
aI412
aI179
aI4
aI12
aI90
aI316
aI3
aI354
aI469
aI213
aI215
aI353
aI236
aI108
aI207
aI346
aI309
aI286
aI491
aI484
aI69
aI233
aI259
asI364
(lp365
I409
aI436
aI76
aI351
aI68
aI264
aI103
aI113
aI214
aI247
aI479
aI227
aI70
aI407
aI283
aI88
aI455
aI184
aI46
aI165
aI42
aI255
aI83
aI459
aI366
aI176
aI171
aI52
aI151
aI476
aI126
aI250
aI270
aI288
aI333
aI359
aI461
aI14
aI60
aI484
aI104
aI451
aI374
aI246
aI230
aI478
aI21
aI197
aI172
aI396
asI365
(lp366
I448
aI198
aI372
aI290
aI250
aI222
aI286
aI314
aI253
aI461
aI139
aI419
aI53
aI498
aI135
aI86
aI25
aI400
aI278
aI466
aI71
aI346
aI435
aI309
aI2
aI288
aI87
aI148
aI215
aI306
aI398
aI132
aI29
aI334
aI224
aI274
aI180
aI90
aI189
aI52
aI17
aI244
aI392
aI83
aI239
aI294
aI464
aI223
aI111
aI394
asI366
(lp367
I346
aI17
aI478
aI410
aI126
aI81
aI347
aI342
aI189
aI292
aI495
aI47
aI218
aI18
aI28
aI389
aI497
aI320
aI249
aI160
aI40
aI457
aI75
aI50
aI398
aI36
aI301
aI330
aI221
aI121
aI400
aI20
aI255
aI111
aI118
aI11
aI223
aI425
aI6
aI448
aI58
aI479
aI450
aI321
aI491
aI393
aI48
aI93
aI212
aI391
asI367
(lp368
I272
aI185
aI105
aI3
aI433
aI136
aI204
aI86
aI309
aI259
aI132
aI37
aI458
aI487
aI190
aI181
aI297
aI98
aI22
aI262
aI381
aI377
aI154
aI342
aI366
aI477
aI76
aI189
aI375
aI392
aI100
aI5
aI346
aI38
aI402
aI365
aI112
aI265
aI255
aI486
aI220
aI498
aI58
aI333
aI175
aI13
aI142
aI318
aI469
aI240
asI368
(lp369
I116
aI178
aI112
aI333
aI228
aI387
aI11
aI224
aI21
aI39
aI346
aI121
aI214
aI379
aI450
aI392
aI307
aI87
aI400
aI271
aI31
aI339
aI283
aI352
aI324
aI430
aI385
aI295
aI142
aI323
aI69
aI321
aI30
aI428
aI241
aI426
aI494
aI86
aI460
aI113
aI434
aI42
aI336
aI221
aI249
aI226
aI187
aI82
aI480
aI456
asI369
(lp370
I447
aI48
aI370
aI129
aI2
aI327
aI249
aI425
aI158
aI461
aI10
aI329
aI13
aI389
aI384
aI315
aI323
aI106
aI143
aI179
aI6
aI488
aI385
aI186
aI72
aI286
aI338
aI288
aI166
aI262
aI321
aI317
aI82
aI130
aI240
aI95
aI454
aI301
aI397
aI220
aI345
aI293
aI31
aI113
aI250
aI110
aI444
aI219
aI101
aI265
asI370
(lp371
I394
aI302
aI424
aI430
aI114
aI347
aI101
aI233
aI111
aI458
aI259
aI179
aI324
aI241
aI399
aI33
aI5
aI366
aI367
aI346
aI195
aI106
aI86
aI36
aI125
aI213
aI163
aI500
aI152
aI30
aI350
aI216
aI88
aI482
aI64
aI421
aI382
aI176
aI281
aI453
aI473
aI95
aI24
aI12
aI136
aI283
aI97
aI487
aI338
aI313
asI371
(lp372
I293
aI423
aI137
aI112
aI280
aI471
aI62
aI37
aI87
aI309
aI22
aI298
aI473
aI492
aI60
aI366
aI283
aI232
aI453
aI202
aI259
aI290
aI245
aI398
aI175
aI84
aI395
aI389
aI261
aI103
aI415
aI1
aI325
aI346
aI4
aI279
aI29
aI25
aI9
aI284
aI474
aI139
aI207
aI65
aI128
aI401
aI50
aI482
aI335
aI13
asI372
(lp373
I375
aI265
aI249
aI377
aI17
aI56
aI135
aI473
aI460
aI322
aI290
aI7
aI235
aI87
aI183
aI71
aI475
aI276
aI399
aI30
aI351
aI334
aI313
aI74
aI6
aI21
aI181
aI133
aI483
aI406
aI240
aI336
aI146
aI101
aI143
aI110
aI348
aI220
aI80
aI440
aI402
aI464
aI234
aI144
aI307
aI270
aI217
aI93
aI33
aI35
asI373
(lp374
I485
aI392
aI240
aI48
aI85
aI45
aI62
aI318
aI348
aI416
aI70
aI454
aI465
aI248
aI79
aI31
aI371
aI301
aI398
aI304
aI238
aI343
aI114
aI480
aI89
aI447
aI347
aI225
aI9
aI334
aI229
aI20
aI120
aI251
aI156
aI118
aI395
aI125
aI121
aI312
aI22
aI336
aI401
aI166
aI351
aI349
aI444
aI381
aI473
aI167
asI374
(lp375
I23
aI170
aI243
aI467
aI442
aI431
aI159
aI97
aI163
aI478
aI144
aI312
aI414
aI469
aI454
aI52
aI278
aI95
aI477
aI493
aI452
aI60
aI122
aI141
aI103
aI38
aI423
aI174
aI249
aI123
aI449
aI276
aI328
aI111
aI485
aI90
aI413
aI20
aI492
aI397
aI491
aI279
aI117
aI289
aI498
aI309
aI337
aI304
aI258
aI393
asI375
(lp376
I144
aI487
aI452
aI466
aI10
aI309
aI431
aI434
aI158
aI59
aI285
aI8
aI465
aI458
aI464
aI323
aI26
aI44
aI329
aI456
aI212
aI313
aI155
aI35
aI239
aI218
aI87
aI406
aI64
aI493
aI257
aI474
aI423
aI425
aI359
aI286
aI328
aI208
aI97
aI303
aI384
aI142
aI120
aI337
aI203
aI307
aI7
aI22
aI387
aI90
asI376
(lp377
I163
aI103
aI321
aI302
aI181
aI113
aI4
aI468
aI400
aI455
aI214
aI315
aI98
aI56
aI79
aI471
aI243
aI428
aI289
aI491
aI3
aI417
aI237
aI352
aI345
aI116
aI27
aI182
aI7
aI152
aI47
aI325
aI442
aI69
aI126
aI379
aI57
aI348
aI134
aI50
aI308
aI224
aI196
aI222
aI225
aI275
aI479
aI425
aI256
aI236
asI377
(lp378
I291
aI411
aI438
aI64
aI275
aI309
aI439
aI194
aI10
aI40
aI223
aI5
aI355
aI143
aI363
aI288
aI498
aI375
aI232
aI369
aI282
aI149
aI496
aI326
aI153
aI253
aI345
aI262
aI51
aI181
aI29
aI150
aI490
aI420
aI315
aI316
aI23
aI290
aI463
aI62
aI300
aI231
aI449
aI197
aI118
aI168
aI142
aI120
aI384
aI277
asI378
(lp379
I10
aI347
aI268
aI398
aI499
aI371
aI455
aI334
aI139
aI345
aI319
aI476
aI29
aI240
aI19
aI397
aI265
aI67
aI457
aI277
aI239
aI351
aI210
aI237
aI349
aI9
aI56
aI438
aI431
aI39
aI380
aI406
aI218
aI155
aI104
aI169
aI60
aI133
aI400
aI470
aI180
aI2
aI391
aI17
aI307
aI496
aI52
aI383
aI257
aI54
asI379
(lp380
I61
aI116
aI245
aI71
aI205
aI248
aI213
aI348
aI404
aI174
aI389
aI185
aI468
aI153
aI273
aI394
aI385
aI354
aI5
aI302
aI55
aI13
aI283
aI422
aI231
aI142
aI14
aI159
aI331
aI110
aI299
aI19
aI155
aI131
aI78
aI324
aI59
aI442
aI391
aI480
aI274
aI120
aI52
aI84
aI320
aI364
aI51
aI93
aI233
aI171
asI380
(lp381
I388
aI323
aI458
aI74
aI158
aI445
aI207
aI296
aI17
aI312
aI316
aI76
aI428
aI37
aI485
aI36
aI53
aI218
aI24
aI77
aI110
aI120
aI231
aI104
aI313
aI465
aI18
aI246
aI306
aI338
aI240
aI496
aI495
aI4
aI274
aI377
aI493
aI137
aI59
aI213
aI266
aI39
aI464
aI419
aI223
aI122
aI58
aI297
aI241
aI448
asI381
(lp382
I342
aI27
aI244
aI184
aI441
aI60
aI258
aI250
aI12
aI132
aI421
aI346
aI453
aI139
aI220
aI329
aI89
aI247
aI385
aI317
aI456
aI137
aI254
aI399
aI383
aI100
aI248
aI328
aI480
aI98
aI358
aI261
aI16
aI440
aI460
aI136
aI143
aI10
aI493
aI65
aI318
aI293
aI199
aI124
aI24
aI344
aI208
aI113
aI468
aI239
asI382
(lp383
I20
aI327
aI363
aI287
aI290
aI139
aI340
aI237
aI299
aI294
aI371
aI151
aI95
aI250
aI131
aI53
aI452
aI419
aI142
aI386
aI393
aI376
aI232
aI429
aI388
aI269
aI405
aI350
aI430
aI484
aI233
aI426
aI289
aI177
aI97
aI270
aI326
aI55
aI61
aI56
aI169
aI166
aI369
aI59
aI181
aI262
aI167
aI196
aI322
aI344
asI383
(lp384
I492
aI444
aI323
aI346
aI420
aI429
aI63
aI83
aI459
aI195
aI341
aI25
aI2
aI338
aI410
aI229
aI218
aI237
aI250
aI31
aI217
aI52
aI467
aI290
aI390
aI146
aI27
aI453
aI153
aI91
aI164
aI358
aI64
aI268
aI129
aI318
aI243
aI81
aI280
aI236
aI259
aI267
aI332
aI151
aI196
aI389
aI336
aI475
aI469
aI65
asI384
(lp385
I44
aI472
aI220
aI36
aI59
aI56
aI184
aI335
aI371
aI182
aI266
aI428
aI78
aI22
aI144
aI169
aI438
aI20
aI99
aI290
aI48
aI440
aI493
aI407
aI88
aI317
aI24
aI394
aI41
aI161
aI60
aI457
aI241
aI345
aI269
aI258
aI420
aI28
aI375
aI15
aI37
aI435
aI248
aI310
aI274
aI492
aI323
aI256
aI249
aI314
asI385
(lp386
I275
aI48
aI483
aI161
aI118
aI334
aI140
aI156
aI176
aI461
aI111
aI319
aI495
aI479
aI313
aI8
aI338
aI459
aI33
aI61
aI481
aI74
aI268
aI207
aI201
aI363
aI227
aI414
aI296
aI425
aI487
aI99
aI56
aI223
aI393
aI143
aI183
aI350
aI492
aI80
aI83
aI233
aI315
aI244
aI267
aI120
aI438
aI494
aI390
aI169
asI386
(lp387
I210
aI21
aI323
aI428
aI339
aI26
aI473
aI136
aI153
aI345
aI228
aI391
aI290
aI475
aI462
aI471
aI269
aI130
aI47
aI393
aI319
aI179
aI212
aI318
aI273
aI198
aI90
aI241
aI275
aI112
aI480
aI66
aI131
aI295
aI191
aI205
aI220
aI139
aI438
aI401
aI72
aI264
aI457
aI121
aI200
aI82
aI224
aI427
aI309
aI93
asI387
(lp388
I74
aI466
aI114
aI37
aI167
aI325
aI221
aI397
aI159
aI471
aI239
aI280
aI23
aI45
aI254
aI426
aI454
aI339
aI31
aI204
aI289
aI321
aI351
aI111
aI298
aI106
aI113
aI459
aI335
aI66
aI234
aI201
aI356
aI179
aI123
aI330
aI180
aI214
aI38
aI196
aI353
aI440
aI428
aI242
aI409
aI213
aI245
aI451
aI279
aI332
asI388
(lp389
I277
aI422
aI154
aI208
aI211
aI170
aI148
aI88
aI1
aI48
aI479
aI260
aI442
aI23
aI359
aI361
aI54
aI50
aI350
aI335
aI96
aI241
aI133
aI312
aI93
aI465
aI21
aI209
aI264
aI43
aI381
aI245
aI244
aI499
aI348
aI380
aI266
aI415
aI398
aI19
aI76
aI140
aI168
aI79
aI31
aI231
aI349
aI235
aI7
aI15
asI389
(lp390
I99
aI214
aI68
aI4
aI398
aI207
aI422
aI74
aI23
aI338
aI9
aI379
aI406
aI112
aI174
aI242
aI231
aI106
aI375
aI217
aI265
aI223
aI109
aI487
aI330
aI450
aI280
aI155
aI94
aI71
aI461
aI320
aI345
aI122
aI199
aI413
aI230
aI368
aI256
aI60
aI304
aI411
aI195
aI357
aI53
aI373
aI216
aI445
aI423
aI44
asI390
(lp391
I94
aI471
aI116
aI251
aI275
aI46
aI331
aI197
aI174
aI224
aI71
aI355
aI68
aI73
aI380
aI396
aI229
aI136
aI256
aI108
aI258
aI441
aI316
aI462
aI282
aI29
aI132
aI265
aI42
aI215
aI88
aI187
aI452
aI219
aI244
aI311
aI334
aI474
aI83
aI377
aI20
aI30
aI150
aI491
aI178
aI389
aI234
aI243
aI39
aI43
asI391
(lp392
I284
aI303
aI96
aI230
aI85
aI462
aI371
aI432
aI387
aI475
aI197
aI350
aI384
aI10
aI364
aI43
aI314
aI89
aI459
aI143
aI443
aI226
aI196
aI425
aI201
aI218
aI241
aI352
aI412
aI172
aI192
aI362
aI336
aI497
aI420
aI228
aI93
aI205
aI402
aI225
aI128
aI334
aI426
aI294
aI166
aI367
aI445
aI154
aI344
aI478
asI392
(lp393
I243
aI463
aI289
aI265
aI434
aI148
aI248
aI155
aI20
aI430
aI12
aI200
aI437
aI358
aI291
aI403
aI233
aI113
aI16
aI334
aI332
aI158
aI228
aI401
aI77
aI424
aI466
aI312
aI68
aI8
aI189
aI336
aI468
aI485
aI350
aI204
aI65
aI349
aI446
aI400
aI139
aI318
aI375
aI408
aI287
aI379
aI453
aI183
aI224
aI251
asI393
(lp394
I444
aI235
aI111
aI311
aI479
aI351
aI323
aI371
aI130
aI313
aI466
aI24
aI9
aI380
aI100
aI49
aI471
aI493
aI43
aI182
aI112
aI363
aI239
aI453
aI3
aI219
aI143
aI255
aI465
aI151
aI85
aI12
aI8
aI150
aI173
aI144
aI158
aI368
aI26
aI152
aI71
aI467
aI84
aI411
aI432
aI349
aI91
aI134
aI138
aI261
asI394
(lp395
I497
aI335
aI359
aI466
aI471
aI265
aI23
aI433
aI425
aI375
aI220
aI494
aI238
aI390
aI139
aI470
aI250
aI9
aI82
aI465
aI89
aI243
aI131
aI324
aI416
aI376
aI102
aI155
aI364
aI469
aI482
aI337
aI54
aI154
aI202
aI145
aI338
aI68
aI392
aI60
aI77
aI185
aI399
aI59
aI209
aI225
aI41
aI115
aI87
aI368
asI395
(lp396
I238
aI489
aI351
aI69
aI19
aI487
aI430
aI282
aI276
aI476
aI281
aI286
aI297
aI354
aI225
aI81
aI326
aI469
aI204
aI230
aI107
aI124
aI13
aI37
aI84
aI63
aI481
aI222
aI289
aI87
aI210
aI494
aI231
aI5
aI394
aI239
aI403
aI445
aI223
aI11
aI357
aI349
aI213
aI402
aI261
aI412
aI418
aI459
aI9
aI250
asI396
(lp397
I110
aI276
aI253
aI225
aI467
aI22
aI182
aI471
aI272
aI244
aI323
aI486
aI137
aI426
aI167
aI291
aI239
aI212
aI286
aI114
aI429
aI138
aI8
aI197
aI1
aI412
aI417
aI328
aI215
aI105
aI192
aI160
aI335
aI288
aI420
aI300
aI489
aI355
aI408
aI438
aI431
aI331
aI148
aI162
aI24
aI317
aI49
aI473
aI469
aI346
asI397
(lp398
I86
aI386
aI321
aI79
aI8
aI80
aI303
aI492
aI471
aI435
aI352
aI472
aI284
aI280
aI495
aI480
aI58
aI15
aI200
aI88
aI191
aI211
aI343
aI244
aI288
aI320
aI272
aI40
aI4
aI345
aI242
aI173
aI470
aI230
aI354
aI197
aI175
aI425
aI185
aI459
aI141
aI226
aI486
aI450
aI2
aI401
aI169
aI381
aI383
aI299
asI398
(lp399
I343
aI394
aI168
aI469
aI94
aI493
aI118
aI323
aI20
aI81
aI393
aI143
aI421
aI273
aI379
aI331
aI353
aI472
aI154
aI219
aI2
aI122
aI282
aI103
aI341
aI114
aI427
aI441
aI141
aI25
aI482
aI192
aI460
aI464
aI462
aI375
aI102
aI9
aI189
aI372
aI56
aI47
aI185
aI119
aI466
aI149
aI346
aI374
aI127
aI26
asI399
(lp400
I49
aI24
aI439
aI137
aI35
aI12
aI347
aI434
aI231
aI328
aI33
aI465
aI387
aI495
aI61
aI484
aI254
aI216
aI408
aI54
aI329
aI300
aI264
aI98
aI36
aI463
aI299
aI369
aI295
aI456
aI450
aI131
aI208
aI11
aI250
aI121
aI371
aI94
aI39
aI220
aI282
aI365
aI97
aI341
aI320
aI125
aI175
aI409
aI260
aI413
asI400
(lp401
I350
aI365
aI277
aI417
aI167
aI331
aI257
aI402
aI458
aI40
aI233
aI18
aI452
aI374
aI325
aI15
aI108
aI190
aI65
aI31
aI497
aI191
aI443
aI176
aI420
aI9
aI82
aI466
aI311
aI359
aI241
aI270
aI410
aI344
aI351
aI411
aI357
aI415
aI486
aI246
aI189
aI399
aI294
aI102
aI362
aI184
aI146
aI12
aI468
aI490
asI401
(lp402
I390
aI211
aI132
aI258
aI3
aI416
aI372
aI336
aI138
aI190
aI397
aI377
aI393
aI214
aI481
aI66
aI470
aI225
aI113
aI75
aI91
aI291
aI220
aI43
aI299
aI389
aI298
aI67
aI338
aI315
aI234
aI18
aI476
aI345
aI302
aI469
aI111
aI409
aI157
aI232
aI115
aI200
aI114
aI419
aI282
aI62
aI466
aI39
aI26
aI236
asI402
(lp403
I102
aI35
aI398
aI434
aI149
aI37
aI122
aI319
aI134
aI143
aI65
aI151
aI42
aI304
aI147
aI347
aI175
aI369
aI62
aI352
aI343
aI44
aI92
aI89
aI302
aI159
aI219
aI186
aI462
aI47
aI118
aI30
aI247
aI113
aI458
aI329
aI249
aI459
aI130
aI241
aI497
aI167
aI212
aI26
aI340
aI171
aI232
aI282
aI10
aI322
asI403
(lp404
I102
aI160
aI303
aI205
aI439
aI252
aI54
aI374
aI345
aI211
aI55
aI184
aI343
aI469
aI179
aI490
aI408
aI61
aI155
aI248
aI19
aI137
aI30
aI191
aI75
aI11
aI2
aI432
aI226
aI493
aI297
aI400
aI131
aI201
aI78
aI373
aI339
aI62
aI390
aI471
aI414
aI67
aI255
aI151
aI282
aI459
aI83
aI203
aI206
aI87
asI404
(lp405
I356
aI294
aI452
aI85
aI288
aI427
aI281
aI118
aI219
aI266
aI58
aI92
aI468
aI267
aI252
aI122
aI472
aI282
aI499
aI29
aI189
aI9
aI458
aI385
aI145
aI242
aI402
aI433
aI311
aI329
aI471
aI95
aI399
aI436
aI407
aI395
aI431
aI496
aI232
aI229
aI421
aI210
aI307
aI296
aI57
aI447
aI50
aI487
aI461
aI314
asI405
(lp406
I96
aI442
aI407
aI225
aI109
aI396
aI46
aI149
aI47
aI476
aI281
aI106
aI75
aI461
aI36
aI27
aI90
aI293
aI122
aI3
aI483
aI23
aI371
aI231
aI464
aI147
aI379
aI175
aI383
aI376
aI156
aI494
aI43
aI49
aI222
aI289
aI191
aI433
aI276
aI232
aI186
aI452
aI319
aI157
aI184
aI53
aI98
aI86
aI298
aI211
asI406
(lp407
I25
aI19
aI482
aI499
aI435
aI242
aI357
aI49
aI261
aI170
aI192
aI425
aI434
aI166
aI438
aI279
aI395
aI449
aI201
aI265
aI21
aI87
aI187
aI84
aI359
aI234
aI226
aI77
aI149
aI76
aI81
aI30
aI155
aI34
aI290
aI140
aI307
aI328
aI448
aI103
aI120
aI336
aI86
aI50
aI119
aI372
aI444
aI134
aI282
aI466
asI407
(lp408
I62
aI100
aI461
aI159
aI177
aI296
aI82
aI38
aI187
aI236
aI332
aI211
aI12
aI42
aI426
aI20
aI493
aI302
aI394
aI250
aI498
aI217
aI403
aI251
aI388
aI138
aI283
aI248
aI106
aI444
aI325
aI331
aI487
aI99
aI84
aI491
aI473
aI202
aI261
aI409
aI7
aI45
aI89
aI53
aI242
aI110
aI179
aI24
aI356
aI494
asI408
(lp409
I277
aI210
aI30
aI461
aI219
aI166
aI391
aI316
aI494
aI434
aI422
aI487
aI383
aI492
aI411
aI400
aI74
aI228
aI62
aI253
aI26
aI150
aI380
aI317
aI95
aI426
aI22
aI206
aI359
aI12
aI381
aI256
aI335
aI423
aI221
aI447
aI364
aI272
aI226
aI181
aI193
aI65
aI68
aI32
aI418
aI337
aI57
aI199
aI49
aI139
asI409
(lp410
I495
aI39
aI115
aI303
aI239
aI443
aI275
aI223
aI168
aI266
aI67
aI86
aI8
aI44
aI149
aI84
aI76
aI123
aI11
aI340
aI60
aI306
aI424
aI388
aI127
aI1
aI376
aI363
aI96
aI328
aI5
aI364
aI380
aI272
aI133
aI161
aI99
aI445
aI358
aI451
aI434
aI20
aI361
aI150
aI221
aI82
aI270
aI341
aI111
aI171
asI410
(lp411
I459
aI307
aI445
aI152
aI339
aI365
aI247
aI92
aI415
aI187
aI8
aI10
aI387
aI141
aI360
aI158
aI394
aI442
aI144
aI452
aI90
aI241
aI475
aI278
aI335
aI43
aI52
aI213
aI329
aI303
aI129
aI121
aI166
aI216
aI450
aI242
aI279
aI315
aI349
aI113
aI228
aI344
aI321
aI265
aI209
aI384
aI336
aI72
aI374
aI116
asI411
(lp412
I474
aI85
aI127
aI369
aI6
aI71
aI297
aI46
aI68
aI83
aI138
aI26
aI222
aI362
aI391
aI88
aI92
aI426
aI126
aI110
aI1
aI269
aI96
aI468
aI375
aI399
aI150
aI387
aI57
aI163
aI425
aI440
aI47
aI200
aI89
aI81
aI403
aI164
aI461
aI219
aI404
aI352
aI166
aI213
aI429
aI457
aI224
aI364
aI217
aI263
asI412
(lp413
I112
aI225
aI181
aI94
aI218
aI344
aI284
aI387
aI450
aI355
aI47
aI445
aI152
aI291
aI167
aI465
aI119
aI340
aI469
aI422
aI391
aI281
aI257
aI303
aI170
aI90
aI6
aI3
aI29
aI474
aI497
aI383
aI374
aI319
aI107
aI109
aI18
aI470
aI174
aI368
aI44
aI208
aI124
aI175
aI199
aI61
aI89
aI43
aI77
aI342
asI413
(lp414
I202
aI218
aI3
aI283
aI11
aI120
aI91
aI28
aI398
aI118
aI335
aI384
aI288
aI2
aI236
aI208
aI432
aI461
aI305
aI323
aI152
aI370
aI54
aI57
aI312
aI178
aI486
aI463
aI375
aI295
aI424
aI230
aI214
aI109
aI438
aI408
aI368
aI163
aI347
aI137
aI82
aI472
aI489
aI385
aI474
aI232
aI226
aI443
aI65
aI417
asI414
(lp415
I284
aI93
aI54
aI367
aI480
aI440
aI160
aI400
aI34
aI210
aI200
aI346
aI180
aI170
aI436
aI336
aI77
aI402
aI267
aI310
aI486
aI246
aI106
aI251
aI384
aI97
aI319
aI248
aI3
aI435
aI341
aI182
aI129
aI247
aI86
aI222
aI363
aI49
aI9
aI131
aI448
aI75
aI78
aI425
aI39
aI293
aI328
aI429
aI385
aI487
asI415
(lp416
I16
aI2
aI97
aI270
aI417
aI426
aI240
aI78
aI19
aI124
aI158
aI473
aI216
aI222
aI161
aI447
aI220
aI207
aI7
aI194
aI430
aI427
aI398
aI38
aI377
aI434
aI9
aI53
aI58
aI156
aI453
aI452
aI18
aI90
aI339
aI466
aI110
aI446
aI37
aI408
aI262
aI362
aI232
aI150
aI469
aI355
aI204
aI178
aI130
aI98
asI416
(lp417
I333
aI27
aI370
aI308
aI181
aI263
aI420
aI272
aI385
aI137
aI115
aI20
aI331
aI71
aI262
aI292
aI400
aI113
aI310
aI229
aI287
aI155
aI154
aI15
aI412
aI117
aI146
aI64
aI199
aI365
aI173
aI378
aI441
aI343
aI334
aI227
aI213
aI166
aI277
aI95
aI118
aI114
aI486
aI22
aI184
aI457
aI297
aI172
aI418
aI203
asI417
(lp418
I4
aI471
aI106
aI239
aI304
aI115
aI7
aI426
aI297
aI317
aI138
aI237
aI47
aI355
aI113
aI208
aI193
aI483
aI274
aI263
aI108
aI247
aI144
aI366
aI356
aI468
aI102
aI174
aI270
aI89
aI313
aI170
aI92
aI132
aI54
aI260
aI465
aI345
aI140
aI257
aI494
aI352
aI490
aI439
aI265
aI280
aI461
aI322
aI124
aI406
asI418
(lp419
I206
aI252
aI17
aI144
aI475
aI216
aI158
aI374
aI406
aI36
aI111
aI55
aI153
aI376
aI399
aI468
aI105
aI336
aI319
aI299
aI219
aI114
aI328
aI138
aI321
aI232
aI367
aI122
aI433
aI157
aI10
aI177
aI472
aI90
aI380
aI104
aI183
aI239
aI221
aI431
aI96
aI141
aI315
aI369
aI259
aI30
aI416
aI455
aI174
aI225
asI419
(lp420
I323
aI437
aI64
aI372
aI250
aI88
aI198
aI120
aI328
aI81
aI206
aI446
aI462
aI330
aI210
aI20
aI436
aI284
aI10
aI98
aI108
aI441
aI267
aI135
aI155
aI283
aI218
aI486
aI50
aI243
aI220
aI160
aI474
aI246
aI105
aI82
aI411
aI248
aI222
aI56
aI21
aI58
aI146
aI485
aI15
aI46
aI115
aI93
aI39
aI273
asI420
(lp421
I427
aI61
aI56
aI169
aI64
aI174
aI472
aI183
aI223
aI152
aI111
aI98
aI52
aI360
aI397
aI493
aI201
aI291
aI99
aI145
aI231
aI313
aI400
aI284
aI182
aI2
aI459
aI306
aI25
aI235
aI221
aI452
aI252
aI220
aI150
aI392
aI414
aI103
aI72
aI27
aI446
aI59
aI78
aI213
aI137
aI138
aI498
aI32
aI58
aI394
asI421
(lp422
I71
aI450
aI9
aI155
aI120
aI73
aI89
aI116
aI440
aI418
aI358
aI262
aI423
aI6
aI109
aI477
aI497
aI390
aI101
aI231
aI230
aI311
aI332
aI59
aI452
aI12
aI476
aI278
aI304
aI285
aI226
aI247
aI194
aI191
aI425
aI400
aI495
aI444
aI296
aI188
aI23
aI169
aI334
aI243
aI385
aI229
aI321
aI270
aI302
aI250
asI422
(lp423
I197
aI392
aI489
aI90
aI494
aI30
aI276
aI214
aI133
aI464
aI303
aI336
aI366
aI128
aI201
aI440
aI64
aI305
aI170
aI22
aI429
aI7
aI490
aI495
aI139
aI264
aI189
aI61
aI117
aI468
aI105
aI423
aI478
aI488
aI261
aI135
aI23
aI417
aI310
aI459
aI21
aI439
aI3
aI249
aI156
aI78
aI452
aI151
aI238
aI428
asI423
(lp424
I204
aI349
aI405
aI329
aI93
aI479
aI5
aI111
aI293
aI50
aI36
aI120
aI70
aI397
aI195
aI247
aI19
aI500
aI187
aI66
aI234
aI28
aI42
aI239
aI452
aI73
aI238
aI272
aI188
aI388
aI346
aI318
aI211
aI183
aI245
aI155
aI316
aI51
aI39
aI421
aI201
aI3
aI483
aI13
aI274
aI87
aI41
aI217
aI353
aI157
asI424
(lp425
I379
aI123
aI72
aI243
aI159
aI41
aI2
aI99
aI305
aI156
aI328
aI164
aI354
aI392
aI31
aI87
aI327
aI8
aI207
aI331
aI165
aI92
aI259
aI7
aI491
aI406
aI344
aI109
aI467
aI398
aI303
aI182
aI323
aI458
aI355
aI63
aI479
aI485
aI420
aI163
aI236
aI268
aI55
aI423
aI18
aI488
aI449
aI448
aI11
aI225
asI425
(lp426
I96
aI343
aI193
aI370
aI7
aI150
aI247
aI19
aI452
aI400
aI408
aI364
aI275
aI107
aI176
aI387
aI380
aI412
aI228
aI297
aI217
aI136
aI392
aI426
aI153
aI66
aI330
aI39
aI388
aI93
aI338
aI239
aI281
aI129
aI145
aI8
aI229
aI135
aI453
aI57
aI433
aI383
aI170
aI323
aI182
aI435
aI238
aI242
aI386
aI15
asI426
(lp427
I300
aI390
aI66
aI268
aI420
aI239
aI470
aI380
aI10
aI407
aI365
aI374
aI461
aI408
aI199
aI375
aI218
aI305
aI410
aI265
aI51
aI55
aI243
aI448
aI472
aI436
aI347
aI480
aI378
aI203
aI89
aI422
aI238
aI165
aI488
aI202
aI81
aI353
aI49
aI27
aI497
aI59
aI317
aI168
aI97
aI262
aI127
aI217
aI3
aI58
asI427
(lp428
I111
aI380
aI156
aI322
aI269
aI182
aI197
aI405
aI489
aI488
aI362
aI333
aI482
aI364
aI368
aI435
aI86
aI160
aI393
aI370
aI199
aI402
aI89
aI347
aI388
aI415
aI328
aI465
aI3
aI126
aI353
aI114
aI196
aI240
aI181
aI468
aI316
aI258
aI97
aI262
aI327
aI23
aI108
aI245
aI361
aI195
aI492
aI395
aI310
aI408
asI428
(lp429
I99
aI270
aI283
aI338
aI63
aI259
aI444
aI447
aI121
aI166
aI276
aI288
aI465
aI73
aI377
aI369
aI298
aI342
aI175
aI422
aI140
aI472
aI412
aI282
aI260
aI12
aI363
aI345
aI93
aI323
aI60
aI482
aI368
aI19
aI80
aI315
aI17
aI329
aI195
aI399
aI103
aI189
aI340
aI118
aI20
aI341
aI128
aI440
aI95
aI127
asI429
(lp430
I37
aI458
aI473
aI234
aI190
aI13
aI251
aI442
aI495
aI421
aI181
aI350
aI15
aI10
aI252
aI93
aI476
aI265
aI441
aI68
aI396
aI331
aI357
aI178
aI27
aI466
aI97
aI383
aI267
aI195
aI164
aI137
aI45
aI67
aI173
aI220
aI155
aI198
aI385
aI223
aI134
aI438
aI142
aI277
aI237
aI104
aI321
aI496
aI150
aI399
asI430
(lp431
I470
aI374
aI426
aI285
aI102
aI84
aI74
aI299
aI154
aI176
aI267
aI85
aI100
aI325
aI270
aI42
aI476
aI444
aI97
aI360
aI294
aI240
aI161
aI155
aI24
aI203
aI276
aI120
aI65
aI364
aI404
aI29
aI253
aI434
aI196
aI233
aI180
aI496
aI48
aI168
aI164
aI183
aI118
aI132
aI340
aI316
aI125
aI411
aI370
aI33
asI431
(lp432
I497
aI28
aI370
aI196
aI206
aI47
aI438
aI152
aI116
aI57
aI105
aI350
aI460
aI457
aI459
aI5
aI158
aI246
aI161
aI475
aI42
aI341
aI320
aI285
aI426
aI212
aI113
aI209
aI476
aI221
aI273
aI451
aI24
aI148
aI192
aI45
aI131
aI441
aI67
aI288
aI287
aI62
aI308
aI96
aI39
aI187
aI99
aI333
aI139
aI50
asI432
(lp433
I360
aI440
aI354
aI488
aI471
aI446
aI380
aI91
aI457
aI224
aI103
aI293
aI228
aI255
aI31
aI299
aI273
aI83
aI13
aI484
aI418
aI304
aI137
aI202
aI198
aI414
aI410
aI170
aI375
aI369
aI254
aI290
aI241
aI93
aI158
aI115
aI14
aI442
aI345
aI409
aI390
aI26
aI64
aI473
aI190
aI287
aI343
aI371
aI151
aI94
asI433
(lp434
I340
aI10
aI59
aI270
aI176
aI480
aI247
aI4
aI404
aI178
aI316
aI250
aI303
aI490
aI265
aI187
aI194
aI11
aI205
aI221
aI370
aI99
aI407
aI388
aI217
aI337
aI492
aI285
aI100
aI317
aI439
aI127
aI117
aI44
aI417
aI280
aI148
aI437
aI126
aI146
aI425
aI90
aI196
aI28
aI80
aI245
aI159
aI163
aI255
aI324
asI434
(lp435
I452
aI59
aI399
aI351
aI287
aI312
aI335
aI499
aI486
aI253
aI65
aI498
aI274
aI114
aI104
aI465
aI86
aI480
aI72
aI198
aI315
aI211
aI136
aI436
aI367
aI464
aI205
aI115
aI466
aI275
aI140
aI296
aI419
aI454
aI310
aI244
aI9
aI402
aI98
aI485
aI11
aI4
aI165
aI293
aI215
aI284
aI344
aI223
aI234
aI467
asI435
(lp436
I385
aI197
aI369
aI145
aI378
aI99
aI50
aI278
aI312
aI478
aI326
aI44
aI87
aI354
aI45
aI391
aI353
aI111
aI25
aI468
aI273
aI121
aI282
aI9
aI249
aI79
aI469
aI449
aI108
aI159
aI481
aI206
aI53
aI476
aI430
aI252
aI232
aI493
aI15
aI420
aI295
aI131
aI230
aI134
aI402
aI17
aI130
aI103
aI280
aI299
asI436
(lp437
I73
aI475
aI144
aI444
aI335
aI183
aI406
aI276
aI309
aI301
aI190
aI58
aI470
aI47
aI223
aI431
aI206
aI294
aI225
aI469
aI464
aI15
aI25
aI442
aI50
aI476
aI401
aI326
aI135
aI314
aI308
aI12
aI116
aI132
aI22
aI216
aI9
aI56
aI410
aI343
aI315
aI489
aI80
aI417
aI291
aI400
aI174
aI492
aI362
aI337
asI437
(lp438
I83
aI122
aI94
aI368
aI486
aI75
aI323
aI257
aI196
aI95
aI327
aI434
aI357
aI296
aI154
aI82
aI93
aI30
aI138
aI110
aI303
aI373
aI417
aI70
aI212
aI198
aI200
aI134
aI488
aI340
aI222
aI213
aI27
aI66
aI60
aI399
aI234
aI21
aI483
aI258
aI201
aI31
aI211
aI204
aI335
aI291
aI445
aI55
aI274
aI221
asI438
(lp439
I50
aI207
aI22
aI173
aI311
aI14
aI246
aI201
aI466
aI190
aI62
aI97
aI291
aI196
aI498
aI72
aI356
aI453
aI398
aI284
aI472
aI216
aI299
aI21
aI64
aI28
aI422
aI9
aI149
aI7
aI106
aI319
aI333
aI181
aI442
aI222
aI141
aI234
aI192
aI115
aI1
aI220
aI159
aI25
aI301
aI477
aI270
aI436
aI56
aI328
asI439
(lp440
I493
aI477
aI108
aI12
aI471
aI339
aI197
aI214
aI180
aI21
aI249
aI290
aI210
aI264
aI202
aI133
aI110
aI304
aI219
aI286
aI397
aI383
aI455
aI136
aI127
aI67
aI311
aI192
aI450
aI131
aI30
aI171
aI187
aI423
aI419
aI80
aI361
aI11
aI318
aI43
aI456
aI200
aI71
aI162
aI46
aI469
aI363
aI474
aI373
aI1
asI440
(lp441
I413
aI300
aI346
aI453
aI32
aI195
aI46
aI368
aI364
aI452
aI160
aI251
aI152
aI42
aI158
aI439
aI100
aI431
aI277
aI155
aI461
aI83
aI10
aI167
aI171
aI180
aI38
aI480
aI353
aI449
aI176
aI114
aI420
aI384
aI363
aI61
aI22
aI284
aI274
aI315
aI256
aI19
aI391
aI499
aI460
aI474
aI268
aI388
aI248
aI366
asI441
(lp442
I404
aI287
aI83
aI254
aI449
aI231
aI275
aI139
aI420
aI162
aI352
aI453
aI371
aI406
aI447
aI469
aI499
aI345
aI472
aI197
aI489
aI125
aI82
aI131
aI246
aI244
aI382
aI405
aI318
aI115
aI467
aI230
aI74
aI266
aI312
aI213
aI435
aI150
aI55
aI442
aI317
aI462
aI276
aI486
aI95
aI46
aI48
aI242
aI337
aI444
asI442
(lp443
I141
aI207
aI355
aI312
aI308
aI346
aI278
aI399
aI193
aI241
aI389
aI100
aI277
aI457
aI197
aI80
aI189
aI428
aI70
aI14
aI249
aI44
aI441
aI348
aI400
aI444
aI237
aI18
aI4
aI78
aI211
aI98
aI265
aI334
aI357
aI37
aI419
aI280
aI200
aI416
aI330
aI381
aI409
aI166
aI390
aI410
aI393
aI64
aI351
aI240
asI443
(lp444
I289
aI320
aI247
aI340
aI353
aI129
aI300
aI192
aI30
aI115
aI478
aI221
aI137
aI299
aI110
aI75
aI370
aI223
aI96
aI332
aI453
aI90
aI195
aI428
aI144
aI374
aI469
aI84
aI493
aI42
aI26
aI145
aI499
aI498
aI253
aI298
aI427
aI38
aI33
aI357
aI123
aI170
aI107
aI260
aI102
aI275
aI238
aI41
aI162
aI202
asI444
(lp445
I390
aI163
aI246
aI324
aI101
aI485
aI304
aI183
aI59
aI171
aI491
aI266
aI23
aI258
aI98
aI195
aI190
aI283
aI244
aI62
aI43
aI24
aI82
aI83
aI216
aI67
aI395
aI109
aI360
aI177
aI486
aI265
aI50
aI335
aI488
aI19
aI172
aI273
aI46
aI14
aI192
aI463
aI405
aI442
aI77
aI458
aI126
aI496
aI279
aI495
asI445
(lp446
I438
aI349
aI137
aI282
aI122
aI154
aI111
aI390
aI170
aI428
aI272
aI297
aI121
aI274
aI488
aI85
aI396
aI18
aI178
aI452
aI313
aI196
aI257
aI296
aI493
aI276
aI46
aI457
aI156
aI455
aI176
aI131
aI106
aI388
aI242
aI59
aI434
aI87
aI407
aI373
aI161
aI115
aI96
aI34
aI230
aI286
aI307
aI463
aI288
aI108
asI446
(lp447
I164
aI143
aI320
aI232
aI336
aI45
aI402
aI282
aI352
aI431
aI261
aI319
aI202
aI347
aI72
aI141
aI123
aI218
aI269
aI185
aI154
aI100
aI386
aI374
aI302
aI203
aI491
aI274
aI239
aI465
aI383
aI199
aI368
aI245
aI364
aI492
aI356
aI441
aI12
aI14
aI280
aI423
aI461
aI480
aI244
aI397
aI331
aI39
aI34
aI237
asI447
(lp448
I337
aI379
aI238
aI394
aI153
aI203
aI108
aI400
aI313
aI452
aI264
aI304
aI366
aI309
aI167
aI163
aI476
aI204
aI150
aI444
aI234
aI223
aI93
aI232
aI274
aI402
aI162
aI49
aI33
aI47
aI331
aI188
aI201
aI5
aI95
aI186
aI424
aI250
aI440
aI420
aI450
aI360
aI8
aI60
aI115
aI377
aI417
aI133
aI136
aI32
asI448
(lp449
I364
aI78
aI284
aI400
aI481
aI425
aI316
aI276
aI33
aI177
aI330
aI311
aI382
aI443
aI287
aI280
aI143
aI104
aI291
aI356
aI371
aI145
aI435
aI85
aI310
aI38
aI201
aI162
aI500
aI189
aI95
aI421
aI222
aI495
aI137
aI179
aI102
aI130
aI462
aI127
aI324
aI28
aI466
aI252
aI126
aI465
aI40
aI93
aI121
aI396
asI449
(lp450
I122
aI325
aI282
aI21
aI230
aI36
aI482
aI354
aI71
aI492
aI488
aI430
aI372
aI218
aI260
aI298
aI60
aI411
aI397
aI108
aI229
aI182
aI413
aI306
aI447
aI89
aI222
aI31
aI117
aI471
aI399
aI246
aI441
aI346
aI271
aI224
aI289
aI276
aI15
aI149
aI219
aI34
aI390
aI181
aI412
aI192
aI259
aI179
aI202
aI212
asI450
(lp451
I320
aI105
aI339
aI84
aI110
aI422
aI393
aI39
aI178
aI214
aI157
aI15
aI340
aI50
aI426
aI184
aI372
aI454
aI328
aI495
aI235
aI303
aI21
aI480
aI195
aI160
aI358
aI237
aI148
aI192
aI234
aI489
aI176
aI379
aI487
aI161
aI59
aI177
aI362
aI370
aI396
aI53
aI458
aI115
aI76
aI418
aI5
aI488
aI170
aI391
asI451
(lp452
I450
aI122
aI186
aI182
aI404
aI201
aI486
aI252
aI163
aI459
aI442
aI255
aI496
aI240
aI170
aI225
aI77
aI408
aI97
aI314
aI67
aI412
aI62
aI126
aI267
aI364
aI347
aI492
aI326
aI420
aI396
aI473
aI367
aI339
aI346
aI43
aI160
aI121
aI371
aI153
aI130
aI414
aI286
aI137
aI14
aI384
aI246
aI223
aI381
aI295
asI452
(lp453
I230
aI83
aI79
aI450
aI153
aI365
aI415
aI476
aI382
aI27
aI496
aI289
aI226
aI209
aI65
aI260
aI76
aI497
aI418
aI25
aI81
aI29
aI283
aI458
aI274
aI87
aI102
aI338
aI393
aI54
aI138
aI348
aI325
aI178
aI478
aI439
aI305
aI347
aI364
aI8
aI2
aI367
aI299
aI388
aI52
aI164
aI298
aI376
aI167
aI343
asI453
(lp454
I207
aI128
aI306
aI62
aI217
aI44
aI19
aI28
aI46
aI146
aI107
aI415
aI45
aI277
aI236
aI18
aI123
aI445
aI301
aI239
aI407
aI198
aI50
aI298
aI116
aI115
aI13
aI411
aI150
aI245
aI290
aI154
aI100
aI78
aI288
aI337
aI480
aI109
aI97
aI137
aI66
aI56
aI414
aI435
aI187
aI235
aI30
aI389
aI321
aI364
asI454
(lp455
I211
aI342
aI451
aI246
aI294
aI150
aI119
aI46
aI197
aI161
aI421
aI462
aI180
aI362
aI136
aI140
aI366
aI16
aI434
aI3
aI175
aI101
aI376
aI214
aI306
aI116
aI220
aI173
aI76
aI41
aI242
aI215
aI167
aI2
aI105
aI469
aI290
aI435
aI382
aI114
aI49
aI355
aI383
aI297
aI106
aI109
aI380
aI39
aI122
aI312
asI455
(lp456
I47
aI222
aI453
aI23
aI49
aI460
aI28
aI424
aI361
aI261
aI218
aI264
aI153
aI263
aI57
aI458
aI226
aI8
aI14
aI201
aI339
aI150
aI280
aI467
aI412
aI79
aI262
aI154
aI429
aI195
aI140
aI399
aI64
aI423
aI213
aI294
aI346
aI100
aI354
aI476
aI249
aI131
aI106
aI244
aI474
aI71
aI168
aI338
aI27
aI109
asI456
(lp457
I398
aI308
aI471
aI322
aI331
aI408
aI165
aI418
aI136
aI75
aI393
aI379
aI323
aI495
aI46
aI462
aI121
aI278
aI188
aI18
aI71
aI244
aI186
aI370
aI91
aI403
aI34
aI432
aI474
aI98
aI273
aI96
aI415
aI352
aI234
aI190
aI247
aI295
aI265
aI421
aI12
aI400
aI5
aI267
aI363
aI359
aI62
aI141
aI103
aI488
asI457
(lp458
I309
aI148
aI355
aI489
aI500
aI175
aI236
aI446
aI312
aI423
aI498
aI405
aI260
aI337
aI352
aI452
aI129
aI231
aI351
aI77
aI440
aI126
aI434
aI91
aI411
aI118
aI217
aI325
aI286
aI290
aI193
aI171
aI463
aI252
aI174
aI155
aI425
aI368
aI99
aI395
aI485
aI58
aI35
aI130
aI238
aI285
aI64
aI145
aI317
aI331
asI458
(lp459
I221
aI442
aI279
aI437
aI241
aI225
aI357
aI69
aI232
aI421
aI272
aI332
aI67
aI293
aI150
aI363
aI411
aI166
aI468
aI379
aI480
aI184
aI453
aI49
aI15
aI433
aI131
aI85
aI187
aI477
aI36
aI209
aI247
aI19
aI93
aI207
aI446
aI333
aI11
aI318
aI344
aI162
aI231
aI254
aI71
aI413
aI339
aI304
aI404
aI95
asI459
(lp460
I397
aI130
aI233
aI11
aI187
aI385
aI394
aI379
aI87
aI249
aI449
aI212
aI262
aI415
aI129
aI176
aI30
aI369
aI165
aI456
aI197
aI482
aI419
aI386
aI47
aI188
aI254
aI219
aI33
aI206
aI413
aI193
aI404
aI52
aI86
aI406
aI248
aI377
aI480
aI13
aI275
aI207
aI156
aI416
aI196
aI225
aI346
aI243
aI414
aI122
asI460
(lp461
I149
aI421
aI444
aI69
aI161
aI301
aI42
aI299
aI349
aI412
aI100
aI205
aI494
aI383
aI260
aI424
aI304
aI11
aI455
aI486
aI419
aI61
aI496
aI9
aI340
aI326
aI229
aI146
aI443
aI237
aI78
aI91
aI137
aI434
aI367
aI27
aI203
aI117
aI24
aI188
aI152
aI191
aI482
aI39
aI403
aI452
aI465
aI111
aI86
aI22
asI461
(lp462
I291
aI463
aI477
aI114
aI28
aI233
aI172
aI159
aI280
aI173
aI375
aI450
aI121
aI327
aI429
aI350
aI213
aI441
aI355
aI15
aI13
aI66
aI258
aI485
aI317
aI157
aI397
aI241
aI308
aI22
aI76
aI289
aI428
aI225
aI111
aI12
aI402
aI10
aI79
aI490
aI319
aI497
aI137
aI251
aI216
aI476
aI9
aI283
aI98
aI58
asI462
(lp463
I496
aI315
aI214
aI54
aI212
aI278
aI479
aI104
aI279
aI98
aI201
aI108
aI77
aI287
aI50
aI345
aI211
aI429
aI179
aI189
aI49
aI451
aI332
aI271
aI454
aI203
aI70
aI15
aI282
aI26
aI121
aI389
aI392
aI67
aI313
aI99
aI10
aI260
aI28
aI34
aI46
aI342
aI72
aI140
aI238
aI129
aI168
aI382
aI251
aI327
asI463
(lp464
I382
aI75
aI14
aI418
aI267
aI99
aI230
aI452
aI460
aI171
aI496
aI322
aI346
aI31
aI74
aI272
aI39
aI270
aI474
aI282
aI155
aI69
aI380
aI330
aI195
aI243
aI395
aI140
aI64
aI185
aI306
aI98
aI351
aI233
aI462
aI289
aI148
aI129
aI457
aI484
aI403
aI294
aI431
aI157
aI268
aI259
aI413
aI227
aI316
aI256
asI464
(lp465
I197
aI301
aI251
aI236
aI226
aI500
aI229
aI343
aI204
aI334
aI308
aI358
aI166
aI444
aI102
aI232
aI91
aI442
aI24
aI287
aI238
aI112
aI286
aI39
aI460
aI292
aI278
aI408
aI241
aI392
aI4
aI224
aI373
aI67
aI310
aI117
aI121
aI429
aI252
aI92
aI60
aI231
aI425
aI165
aI2
aI126
aI364
aI377
aI255
aI71
asI465
(lp466
I41
aI373
aI209
aI264
aI105
aI448
aI206
aI157
aI422
aI304
aI96
aI481
aI51
aI335
aI189
aI142
aI242
aI305
aI65
aI196
aI292
aI187
aI249
aI438
aI419
aI227
aI169
aI461
aI338
aI113
aI143
aI118
aI346
aI115
aI459
aI251
aI5
aI172
aI329
aI208
aI457
aI64
aI479
aI280
aI29
aI9
aI254
aI134
aI49
aI302
asI466
(lp467
I369
aI474
aI224
aI86
aI483
aI11
aI493
aI367
aI45
aI451
aI35
aI452
aI63
aI52
aI310
aI37
aI320
aI266
aI389
aI328
aI233
aI316
aI42
aI31
aI117
aI234
aI333
aI223
aI9
aI39
aI312
aI103
aI88
aI206
aI457
aI420
aI323
aI265
aI231
aI166
aI165
aI476
aI387
aI108
aI366
aI392
aI378
aI239
aI128
aI419
asI467
(lp468
I131
aI224
aI315
aI101
aI156
aI226
aI39
aI126
aI321
aI175
aI190
aI262
aI480
aI342
aI42
aI353
aI392
aI352
aI50
aI476
aI158
aI316
aI76
aI293
aI152
aI490
aI253
aI67
aI96
aI282
aI143
aI484
aI445
aI318
aI330
aI163
aI99
aI317
aI443
aI263
aI192
aI497
aI232
aI133
aI489
aI399
aI213
aI241
aI384
aI328
asI468
(lp469
I398
aI494
aI376
aI59
aI185
aI317
aI139
aI352
aI164
aI208
aI491
aI172
aI467
aI354
aI18
aI62
aI174
aI31
aI492
aI133
aI322
aI93
aI81
aI264
aI463
aI121
aI285
aI137
aI266
aI267
aI108
aI451
aI341
aI458
aI381
aI95
aI44
aI309
aI205
aI483
aI77
aI472
aI91
aI392
aI480
aI219
aI329
aI278
aI25
aI296
asI469
(lp470
I109
aI30
aI436
aI113
aI376
aI16
aI144
aI96
aI421
aI290
aI402
aI417
aI276
aI71
aI197
aI415
aI317
aI324
aI301
aI22
aI441
aI345
aI279
aI285
aI305
aI313
aI405
aI496
aI255
aI434
aI181
aI170
aI218
aI82
aI74
aI150
aI239
aI143
aI126
aI373
aI224
aI428
aI495
aI93
aI152
aI343
aI424
aI379
aI209
aI68
asI470
(lp471
I90
aI92
aI442
aI158
aI177
aI25
aI68
aI31
aI328
aI287
aI383
aI182
aI183
aI490
aI466
aI202
aI40
aI37
aI378
aI478
aI475
aI355
aI268
aI106
aI346
aI480
aI99
aI424
aI428
aI213
aI203
aI58
aI224
aI145
aI218
aI121
aI453
aI227
aI316
aI484
aI485
aI397
aI117
aI191
aI252
aI390
aI403
aI226
aI131
aI93
asI471
(lp472
I85
aI270
aI253
aI52
aI252
aI208
aI345
aI417
aI318
aI102
aI51
aI367
aI59
aI135
aI66
aI362
aI104
aI299
aI436
aI222
aI450
aI335
aI491
aI226
aI472
aI54
aI475
aI269
aI467
aI250
aI10
aI214
aI131
aI280
aI29
aI189
aI349
aI393
aI110
aI420
aI332
aI274
aI486
aI113
aI147
aI44
aI158
aI310
aI437
aI247
asI472
(lp473
I36
aI30
aI117
aI167
aI478
aI355
aI379
aI168
aI198
aI65
aI74
aI409
aI363
aI153
aI331
aI485
aI344
aI393
aI245
aI37
aI242
aI44
aI258
aI474
aI369
aI166
aI435
aI22
aI158
aI72
aI329
aI440
aI259
aI77
aI213
aI144
aI273
aI137
aI486
aI122
aI159
aI308
aI110
aI18
aI373
aI189
aI80
aI362
aI489
aI455
asI473
(lp474
I347
aI48
aI344
aI197
aI487
aI226
aI384
aI43
aI164
aI176
aI7
aI442
aI346
aI391
aI160
aI259
aI500
aI95
aI410
aI155
aI388
aI342
aI411
aI298
aI232
aI390
aI328
aI217
aI350
aI354
aI10
aI118
aI125
aI436
aI314
aI34
aI172
aI22
aI15
aI336
aI366
aI166
aI446
aI304
aI387
aI451
aI478
aI406
aI482
aI389
asI474
(lp475
I267
aI419
aI119
aI367
aI416
aI30
aI173
aI333
aI292
aI410
aI100
aI463
aI255
aI18
aI124
aI334
aI261
aI278
aI12
aI4
aI303
aI64
aI230
aI356
aI146
aI138
aI142
aI210
aI86
aI452
aI374
aI302
aI376
aI223
aI102
aI121
aI257
aI435
aI388
aI132
aI343
aI460
aI316
aI73
aI293
aI428
aI11
aI131
aI315
aI426
asI475
(lp476
I196
aI466
aI255
aI371
aI449
aI198
aI16
aI222
aI12
aI163
aI9
aI219
aI189
aI392
aI489
aI431
aI105
aI498
aI462
aI361
aI364
aI291
aI213
aI262
aI14
aI266
aI382
aI368
aI471
aI379
aI257
aI435
aI467
aI276
aI214
aI256
aI286
aI202
aI131
aI22
aI87
aI289
aI225
aI17
aI97
aI308
aI226
aI153
aI315
aI375
asI476
(lp477
I274
aI492
aI386
aI27
aI115
aI461
aI154
aI494
aI52
aI169
aI167
aI181
aI368
aI421
aI109
aI85
aI471
aI459
aI48
aI190
aI25
aI21
aI369
aI289
aI469
aI259
aI239
aI134
aI305
aI325
aI113
aI345
aI244
aI376
aI319
aI296
aI425
aI322
aI360
aI272
aI462
aI264
aI2
aI316
aI143
aI464
aI351
aI191
aI411
aI99
asI477
(lp478
I199
aI381
aI8
aI109
aI34
aI151
aI184
aI405
aI442
aI147
aI458
aI456
aI497
aI352
aI434
aI445
aI304
aI43
aI173
aI338
aI366
aI378
aI420
aI110
aI161
aI257
aI430
aI21
aI265
aI195
aI305
aI286
aI128
aI226
aI283
aI239
aI231
aI254
aI202
aI132
aI296
aI383
aI475
aI190
aI266
aI246
aI412
aI41
aI114
aI335
asI478
(lp479
I125
aI467
aI169
aI472
aI318
aI307
aI121
aI313
aI381
aI124
aI413
aI487
aI351
aI131
aI321
aI390
aI81
aI350
aI30
aI335
aI219
aI137
aI195
aI488
aI26
aI257
aI295
aI90
aI273
aI10
aI291
aI158
aI361
aI306
aI285
aI55
aI60
aI344
aI35
aI420
aI279
aI327
aI465
aI21
aI95
aI499
aI302
aI156
aI80
aI459
asI479
(lp480
I395
aI124
aI180
aI322
aI75
aI176
aI326
aI38
aI205
aI495
aI25
aI221
aI106
aI126
aI360
aI34
aI130
aI242
aI17
aI96
aI309
aI385
aI36
aI465
aI380
aI172
aI149
aI401
aI90
aI409
aI226
aI488
aI420
aI84
aI312
aI476
aI262
aI257
aI475
aI473
aI316
aI204
aI163
aI445
aI335
aI140
aI269
aI80
aI434
aI302
asI480
(lp481
I100
aI246
aI396
aI254
aI458
aI439
aI77
aI1
aI46
aI256
aI147
aI310
aI435
aI348
aI242
aI365
aI494
aI199
aI185
aI347
aI290
aI114
aI40
aI153
aI262
aI302
aI472
aI26
aI194
aI497
aI375
aI152
aI388
aI351
aI85
aI97
aI166
aI43
aI470
aI413
aI179
aI34
aI212
aI156
aI191
aI384
aI316
aI229
aI266
aI158
asI481
(lp482
I111
aI258
aI160
aI117
aI91
aI28
aI122
aI488
aI485
aI411
aI431
aI328
aI475
aI163
aI474
aI78
aI101
aI223
aI315
aI129
aI259
aI437
aI124
aI21
aI438
aI490
aI40
aI143
aI250
aI303
aI298
aI415
aI73
aI409
aI108
aI189
aI85
aI356
aI434
aI453
aI452
aI300
aI324
aI370
aI448
aI144
aI449
aI480
aI249
aI297
asI482
(lp483
I65
aI444
aI332
aI409
aI420
aI447
aI43
aI148
aI422
aI352
aI48
aI304
aI407
aI494
aI19
aI160
aI393
aI219
aI474
aI303
aI82
aI134
aI465
aI392
aI25
aI13
aI257
aI365
aI44
aI201
aI249
aI273
aI446
aI460
aI89
aI449
aI391
aI439
aI203
aI470
aI212
aI290
aI309
aI180
aI70
aI336
aI350
aI356
aI379
aI271
asI483
(lp484
I312
aI444
aI120
aI326
aI61
aI333
aI437
aI138
aI349
aI97
aI12
aI273
aI395
aI377
aI69
aI36
aI252
aI119
aI23
aI411
aI106
aI275
aI10
aI82
aI458
aI233
aI417
aI133
aI110
aI70
aI436
aI462
aI54
aI368
aI415
aI480
aI92
aI85
aI305
aI422
aI167
aI338
aI309
aI50
aI48
aI290
aI281
aI335
aI398
aI495
asI484
(lp485
I361
aI80
aI151
aI455
aI163
aI390
aI266
aI231
aI259
aI394
aI316
aI367
aI258
aI421
aI200
aI124
aI176
aI105
aI209
aI34
aI493
aI342
aI472
aI433
aI108
aI30
aI234
aI284
aI27
aI249
aI117
aI204
aI254
aI386
aI47
aI36
aI403
aI40
aI129
aI222
aI293
aI35
aI58
aI358
aI177
aI372
aI351
aI6
aI192
aI8
asI485
(lp486
I122
aI124
aI117
aI420
aI239
aI223
aI87
aI301
aI152
aI52
aI165
aI354
aI262
aI484
aI267
aI121
aI234
aI388
aI266
aI391
aI386
aI261
aI202
aI445
aI81
aI406
aI459
aI496
aI82
aI400
aI155
aI495
aI337
aI446
aI214
aI92
aI397
aI100
aI8
aI290
aI413
aI60
aI329
aI393
aI22
aI293
aI46
aI254
aI360
aI18
asI486
(lp487
I375
aI380
aI398
aI29
aI431
aI457
aI45
aI336
aI379
aI304
aI113
aI23
aI483
aI373
aI309
aI104
aI66
aI135
aI57
aI417
aI458
aI467
aI93
aI436
aI469
aI414
aI368
aI134
aI360
aI224
aI192
aI185
aI434
aI25
aI292
aI179
aI450
aI480
aI215
aI326
aI118
aI307
aI84
aI197
aI176
aI295
aI345
aI159
aI285
aI468
asI487
(lp488
I61
aI316
aI372
aI190
aI28
aI321
aI255
aI408
aI447
aI269
aI366
aI145
aI428
aI182
aI29
aI250
aI389
aI81
aI49
aI492
aI20
aI490
aI226
aI268
aI31
aI491
aI358
aI419
aI36
aI392
aI282
aI453
aI45
aI74
aI252
aI375
aI207
aI16
aI196
aI188
aI368
aI95
aI451
aI248
aI382
aI326
aI391
aI467
aI152
aI410
asI488
(lp489
I405
aI370
aI420
aI11
aI99
aI416
aI122
aI150
aI455
aI184
aI36
aI449
aI454
aI33
aI426
aI446
aI95
aI136
aI317
aI358
aI320
aI78
aI26
aI459
aI295
aI176
aI256
aI272
aI59
aI445
aI439
aI487
aI280
aI273
aI498
aI300
aI374
aI164
aI418
aI62
aI323
aI190
aI248
aI457
aI21
aI403
aI148
aI187
aI340
aI494
asI489
(lp490
I209
aI194
aI269
aI98
aI463
aI332
aI251
aI130
aI282
aI274
aI141
aI166
aI328
aI494
aI56
aI445
aI432
aI465
aI371
aI231
aI324
aI55
aI22
aI205
aI498
aI91
aI165
aI322
aI439
aI349
aI315
aI395
aI196
aI57
aI25
aI331
aI497
aI290
aI363
aI67
aI304
aI343
aI132
aI306
aI483
aI86
aI156
aI145
aI243
aI13
asI490
(lp491
I176
aI114
aI65
aI309
aI426
aI228
aI449
aI462
aI416
aI390
aI241
aI101
aI470
aI21
aI324
aI141
aI152
aI419
aI214
aI102
aI303
aI343
aI87
aI48
aI451
aI34
aI446
aI17
aI422
aI60
aI329
aI86
aI155
aI16
aI383
aI457
aI196
aI10
aI80
aI362
aI254
aI125
aI250
aI11
aI224
aI475
aI62
aI322
aI171
aI235
asI491
(lp492
I32
aI284
aI9
aI74
aI108
aI36
aI398
aI466
aI237
aI278
aI305
aI389
aI164
aI482
aI207
aI187
aI281
aI412
aI235
aI282
aI153
aI183
aI56
aI60
aI129
aI329
aI401
aI107
aI198
aI289
aI215
aI100
aI26
aI250
aI452
aI6
aI322
aI273
aI59
aI166
aI497
aI185
aI487
aI64
aI351
aI172
aI316
aI14
aI381
aI222
asI492
(lp493
I190
aI142
aI295
aI270
aI314
aI487
aI252
aI307
aI253
aI79
aI364
aI213
aI145
aI60
aI283
aI163
aI3
aI227
aI302
aI344
aI396
aI218
aI130
aI367
aI498
aI309
aI159
aI439
aI6
aI125
aI412
aI164
aI204
aI119
aI53
aI378
aI21
aI222
aI107
aI113
aI105
aI434
aI43
aI245
aI349
aI486
aI230
aI225
aI404
aI117
asI493
(lp494
I222
aI66
aI21
aI213
aI115
aI284
aI307
aI426
aI364
aI191
aI464
aI458
aI468
aI242
aI52
aI108
aI51
aI19
aI90
aI318
aI44
aI256
aI481
aI156
aI431
aI40
aI447
aI197
aI180
aI500
aI232
aI199
aI260
aI465
aI23
aI377
aI394
aI28
aI433
aI142
aI36
aI73
aI217
aI153
aI139
aI43
aI27
aI315
aI202
aI86
asI494
(lp495
I350
aI151
aI109
aI222
aI199
aI171
aI214
aI20
aI87
aI54
aI359
aI344
aI247
aI161
aI125
aI445
aI440
aI29
aI389
aI327
aI186
aI127
aI336
aI203
aI211
aI388
aI443
aI356
aI220
aI436
aI277
aI48
aI114
aI380
aI396
aI6
aI75
aI454
aI103
aI76
aI201
aI227
aI45
aI236
aI426
aI12
aI260
aI81
aI145
aI301
asI495
(lp496
I188
aI493
aI468
aI362
aI29
aI326
aI260
aI92
aI280
aI429
aI6
aI379
aI13
aI270
aI131
aI70
aI9
aI499
aI211
aI208
aI153
aI158
aI203
aI46
aI7
aI355
aI344
aI462
aI37
aI95
aI456
aI41
aI431
aI122
aI56
aI30
aI102
aI307
aI463
aI339
aI190
aI391
aI51
aI215
aI83
aI35
aI448
aI15
aI227
aI390
asI496
(lp497
I457
aI369
aI130
aI427
aI184
aI149
aI388
aI6
aI294
aI136
aI111
aI16
aI101
aI46
aI132
aI178
aI240
aI185
aI292
aI60
aI440
aI355
aI463
aI423
aI92
aI455
aI441
aI344
aI491
aI320
aI186
aI408
aI220
aI425
aI307
aI160
aI146
aI52
aI262
aI241
aI44
aI384
aI198
aI204
aI285
aI55
aI432
aI183
aI48
aI231
asI497
(lp498
I291
aI90
aI65
aI91
aI204
aI454
aI314
aI355
aI221
aI29
aI453
aI260
aI443
aI219
aI151
aI24
aI441
aI455
aI192
aI481
aI141
aI342
aI105
aI115
aI103
aI121
aI470
aI264
aI55
aI433
aI302
aI96
aI39
aI123
aI47
aI197
aI196
aI231
aI347
aI171
aI437
aI318
aI72
aI168
aI37
aI387
aI276
aI430
aI252
aI170
asI498
(lp499
I335
aI467
aI339
aI62
aI416
aI53
aI86
aI470
aI143
aI14
aI31
aI237
aI465
aI455
aI77
aI352
aI366
aI297
aI280
aI44
aI305
aI149
aI105
aI110
aI128
aI444
aI205
aI342
aI396
aI325
aI411
aI181
aI296
aI418
aI448
aI315
aI293
aI454
aI42
aI281
aI220
aI193
aI487
aI382
aI247
aI153
aI211
aI124
aI385
aI239
asI499
(lp500
I288
aI413
aI252
aI75
aI490
aI149
aI295
aI299
aI345
aI52
aI355
aI352
aI494
aI68
aI337
aI28
aI97
aI151
aI359
aI216
aI387
aI82
aI69
aI12
aI432
aI78
aI377
aI342
aI273
aI96
aI381
aI165
aI242
aI183
aI438
aI116
aI276
aI181
aI465
aI373
aI22
aI200
aI113
aI478
aI92
aI190
aI336
aI393
aI123
aI15
asI500
(lp501
I140
aI394
aI154
aI489
aI421
aI219
aI141
aI183
aI147
aI279
aI462
aI108
aI283
aI432
aI71
aI461
aI220
aI133
aI361
aI440
aI374
aI268
aI139
aI457
aI109
aI249
aI275
aI289
aI482
aI49
aI157
aI34
aI142
aI265
aI95
aI119
aI433
aI185
aI322
aI464
aI487
aI308
aI439
aI235
aI499
aI292
aI8
aI40
aI270
aI134
as.